
horizon.kernel:     file format elf32-i386


Disassembly of section .text:

00100000 <deregister_tm_clones-0x10>:
  100000:	02 b0 ad 1b 03 00    	add    0x31bad(%eax),%dh
  100006:	00 00                	add    %al,(%eax)
  100008:	fb                   	sti
  100009:	4f                   	dec    %edi
  10000a:	52                   	push   %edx
  10000b:	e4 66                	in     $0x66,%al
  10000d:	90                   	nop
  10000e:	66 90                	xchg   %ax,%ax

00100010 <deregister_tm_clones>:
  100010:	b8 7c 70 10 00       	mov    $0x10707c,%eax
  100015:	3d 7c 70 10 00       	cmp    $0x10707c,%eax
  10001a:	74 24                	je     100040 <deregister_tm_clones+0x30>
  10001c:	b8 00 00 00 00       	mov    $0x0,%eax
  100021:	85 c0                	test   %eax,%eax
  100023:	74 1b                	je     100040 <deregister_tm_clones+0x30>
  100025:	55                   	push   %ebp
  100026:	89 e5                	mov    %esp,%ebp
  100028:	83 ec 14             	sub    $0x14,%esp
  10002b:	68 7c 70 10 00       	push   $0x10707c
  100030:	ff d0                	call   *%eax
  100032:	83 c4 10             	add    $0x10,%esp
  100035:	c9                   	leave
  100036:	c3                   	ret
  100037:	2e 8d b4 26 00 00 00 	lea    %cs:0x0(%esi,%eiz,1),%esi
  10003e:	00 
  10003f:	90                   	nop
  100040:	c3                   	ret
  100041:	2e 8d b4 26 00 00 00 	lea    %cs:0x0(%esi,%eiz,1),%esi
  100048:	00 
  100049:	8d b4 26 00 00 00 00 	lea    0x0(%esi,%eiz,1),%esi

00100050 <register_tm_clones>:
  100050:	b8 7c 70 10 00       	mov    $0x10707c,%eax
  100055:	2d 7c 70 10 00       	sub    $0x10707c,%eax
  10005a:	89 c2                	mov    %eax,%edx
  10005c:	c1 e8 1f             	shr    $0x1f,%eax
  10005f:	c1 fa 02             	sar    $0x2,%edx
  100062:	01 d0                	add    %edx,%eax
  100064:	d1 f8                	sar    $1,%eax
  100066:	74 20                	je     100088 <register_tm_clones+0x38>
  100068:	ba 00 00 00 00       	mov    $0x0,%edx
  10006d:	85 d2                	test   %edx,%edx
  10006f:	74 17                	je     100088 <register_tm_clones+0x38>
  100071:	55                   	push   %ebp
  100072:	89 e5                	mov    %esp,%ebp
  100074:	83 ec 10             	sub    $0x10,%esp
  100077:	50                   	push   %eax
  100078:	68 7c 70 10 00       	push   $0x10707c
  10007d:	ff d2                	call   *%edx
  10007f:	83 c4 10             	add    $0x10,%esp
  100082:	c9                   	leave
  100083:	c3                   	ret
  100084:	8d 74 26 00          	lea    0x0(%esi,%eiz,1),%esi
  100088:	c3                   	ret
  100089:	8d b4 26 00 00 00 00 	lea    0x0(%esi,%eiz,1),%esi

00100090 <__do_global_dtors_aux>:
  100090:	80 3d 00 80 10 00 00 	cmpb   $0x0,0x108000
  100097:	75 67                	jne    100100 <__do_global_dtors_aux+0x70>
  100099:	55                   	push   %ebp
  10009a:	89 e5                	mov    %esp,%ebp
  10009c:	56                   	push   %esi
  10009d:	be 74 70 10 00       	mov    $0x107074,%esi
  1000a2:	53                   	push   %ebx
  1000a3:	bb 78 70 10 00       	mov    $0x107078,%ebx
  1000a8:	a1 04 80 10 00       	mov    0x108004,%eax
  1000ad:	81 eb 74 70 10 00    	sub    $0x107074,%ebx
  1000b3:	c1 fb 02             	sar    $0x2,%ebx
  1000b6:	83 eb 01             	sub    $0x1,%ebx
  1000b9:	39 d8                	cmp    %ebx,%eax
  1000bb:	73 17                	jae    1000d4 <__do_global_dtors_aux+0x44>
  1000bd:	8d 76 00             	lea    0x0(%esi),%esi
  1000c0:	83 c0 01             	add    $0x1,%eax
  1000c3:	a3 04 80 10 00       	mov    %eax,0x108004
  1000c8:	ff 14 86             	call   *(%esi,%eax,4)
  1000cb:	a1 04 80 10 00       	mov    0x108004,%eax
  1000d0:	39 d8                	cmp    %ebx,%eax
  1000d2:	72 ec                	jb     1000c0 <__do_global_dtors_aux+0x30>
  1000d4:	e8 37 ff ff ff       	call   100010 <deregister_tm_clones>
  1000d9:	b8 00 00 00 00       	mov    $0x0,%eax
  1000de:	85 c0                	test   %eax,%eax
  1000e0:	74 10                	je     1000f2 <__do_global_dtors_aux+0x62>
  1000e2:	83 ec 0c             	sub    $0xc,%esp
  1000e5:	68 dc 50 10 00       	push   $0x1050dc
  1000ea:	e8 11 ff ef ff       	call   0 <ALIGN-0x1>
  1000ef:	83 c4 10             	add    $0x10,%esp
  1000f2:	c6 05 00 80 10 00 01 	movb   $0x1,0x108000
  1000f9:	8d 65 f8             	lea    -0x8(%ebp),%esp
  1000fc:	5b                   	pop    %ebx
  1000fd:	5e                   	pop    %esi
  1000fe:	5d                   	pop    %ebp
  1000ff:	c3                   	ret
  100100:	c3                   	ret
  100101:	2e 8d b4 26 00 00 00 	lea    %cs:0x0(%esi,%eiz,1),%esi
  100108:	00 
  100109:	8d b4 26 00 00 00 00 	lea    0x0(%esi,%eiz,1),%esi

00100110 <frame_dummy>:
  100110:	b8 00 00 00 00       	mov    $0x0,%eax
  100115:	85 c0                	test   %eax,%eax
  100117:	74 27                	je     100140 <frame_dummy+0x30>
  100119:	55                   	push   %ebp
  10011a:	89 e5                	mov    %esp,%ebp
  10011c:	83 ec 10             	sub    $0x10,%esp
  10011f:	68 08 80 10 00       	push   $0x108008
  100124:	68 dc 50 10 00       	push   $0x1050dc
  100129:	e8 d2 fe ef ff       	call   0 <ALIGN-0x1>
  10012e:	83 c4 10             	add    $0x10,%esp
  100131:	c9                   	leave
  100132:	e9 19 ff ff ff       	jmp    100050 <register_tm_clones>
  100137:	2e 8d b4 26 00 00 00 	lea    %cs:0x0(%esi,%eiz,1),%esi
  10013e:	00 
  10013f:	90                   	nop
  100140:	e9 0b ff ff ff       	jmp    100050 <register_tm_clones>

00100145 <_start>:
  100145:	bc 20 c0 10 00       	mov    $0x10c020,%esp
  10014a:	e8 fa 4d 00 00       	call   104f49 <_init>
  10014f:	e8 bc 42 00 00       	call   104410 <kernel_main>
  100154:	fa                   	cli
  100155:	f4                   	hlt
  100156:	eb fd                	jmp    100155 <_start+0x10>
  100158:	66 90                	xchg   %ax,%ax
  10015a:	66 90                	xchg   %ax,%ax
  10015c:	66 90                	xchg   %ax,%ax
  10015e:	66 90                	xchg   %ax,%ax
  100160:	66 90                	xchg   %ax,%ax
  100162:	66 90                	xchg   %ax,%ax
  100164:	66 90                	xchg   %ax,%ax
  100166:	66 90                	xchg   %ax,%ax
  100168:	66 90                	xchg   %ax,%ax
  10016a:	66 90                	xchg   %ax,%ax
  10016c:	66 90                	xchg   %ax,%ax
  10016e:	66 90                	xchg   %ax,%ax
  100170:	66 90                	xchg   %ax,%ax
  100172:	66 90                	xchg   %ax,%ax
  100174:	66 90                	xchg   %ax,%ax
  100176:	66 90                	xchg   %ax,%ax
  100178:	66 90                	xchg   %ax,%ax
  10017a:	66 90                	xchg   %ax,%ax
  10017c:	66 90                	xchg   %ax,%ax
  10017e:	66 90                	xchg   %ax,%ax

00100180 <terminal_initialize>:
  100180:	c7 05 2c c0 10 00 00 	movl   $0x0,0x10c02c
  100187:	00 00 00 
  10018a:	ba a0 80 0b 00       	mov    $0xb80a0,%edx
  10018f:	c7 05 28 c0 10 00 00 	movl   $0x0,0x10c028
  100196:	00 00 00 
  100199:	c6 05 24 c0 10 00 0f 	movb   $0xf,0x10c024
  1001a0:	c7 05 20 c0 10 00 00 	movl   $0xb8000,0x10c020
  1001a7:	80 0b 00 
  1001aa:	8d b6 00 00 00 00    	lea    0x0(%esi),%esi
  1001b0:	8d 82 60 ff ff ff    	lea    -0xa0(%edx),%eax
  1001b6:	2e 8d b4 26 00 00 00 	lea    %cs:0x0(%esi,%eiz,1),%esi
  1001bd:	00 
  1001be:	66 90                	xchg   %ax,%ax
  1001c0:	b9 20 0f 00 00       	mov    $0xf20,%ecx
  1001c5:	83 c0 04             	add    $0x4,%eax
  1001c8:	66 89 48 fc          	mov    %cx,-0x4(%eax)
  1001cc:	b9 20 0f 00 00       	mov    $0xf20,%ecx
  1001d1:	66 89 48 fe          	mov    %cx,-0x2(%eax)
  1001d5:	39 d0                	cmp    %edx,%eax
  1001d7:	75 e7                	jne    1001c0 <terminal_initialize+0x40>
  1001d9:	8d 90 a0 00 00 00    	lea    0xa0(%eax),%edx
  1001df:	3d a0 8f 0b 00       	cmp    $0xb8fa0,%eax
  1001e4:	75 ca                	jne    1001b0 <terminal_initialize+0x30>
  1001e6:	b8 0e 00 00 00       	mov    $0xe,%eax
  1001eb:	ba d4 03 00 00       	mov    $0x3d4,%edx
  1001f0:	ee                   	out    %al,(%dx)
  1001f1:	31 c0                	xor    %eax,%eax
  1001f3:	ba d5 03 00 00       	mov    $0x3d5,%edx
  1001f8:	ee                   	out    %al,(%dx)
  1001f9:	b8 0f 00 00 00       	mov    $0xf,%eax
  1001fe:	ba d4 03 00 00       	mov    $0x3d4,%edx
  100203:	ee                   	out    %al,(%dx)
  100204:	31 c0                	xor    %eax,%eax
  100206:	ba d5 03 00 00       	mov    $0x3d5,%edx
  10020b:	ee                   	out    %al,(%dx)
  10020c:	c3                   	ret
  10020d:	8d 76 00             	lea    0x0(%esi),%esi

00100210 <terminal_setcolor>:
  100210:	55                   	push   %ebp
  100211:	89 e5                	mov    %esp,%ebp
  100213:	8b 45 08             	mov    0x8(%ebp),%eax
  100216:	5d                   	pop    %ebp
  100217:	a2 24 c0 10 00       	mov    %al,0x10c024
  10021c:	c3                   	ret
  10021d:	8d 76 00             	lea    0x0(%esi),%esi

00100220 <update_hardware_cursor>:
  100220:	8b 0d 2c c0 10 00    	mov    0x10c02c,%ecx
  100226:	b8 0e 00 00 00       	mov    $0xe,%eax
  10022b:	ba d4 03 00 00       	mov    $0x3d4,%edx
  100230:	8d 0c 89             	lea    (%ecx,%ecx,4),%ecx
  100233:	c1 e1 04             	shl    $0x4,%ecx
  100236:	66 03 0d 28 c0 10 00 	add    0x10c028,%cx
  10023d:	ee                   	out    %al,(%dx)
  10023e:	89 c8                	mov    %ecx,%eax
  100240:	ba d5 03 00 00       	mov    $0x3d5,%edx
  100245:	66 c1 e8 08          	shr    $0x8,%ax
  100249:	ee                   	out    %al,(%dx)
  10024a:	b8 0f 00 00 00       	mov    $0xf,%eax
  10024f:	ba d4 03 00 00       	mov    $0x3d4,%edx
  100254:	ee                   	out    %al,(%dx)
  100255:	ba d5 03 00 00       	mov    $0x3d5,%edx
  10025a:	89 c8                	mov    %ecx,%eax
  10025c:	ee                   	out    %al,(%dx)
  10025d:	c3                   	ret
  10025e:	66 90                	xchg   %ax,%ax

00100260 <terminal_set_cursor>:
  100260:	55                   	push   %ebp
  100261:	89 e5                	mov    %esp,%ebp
  100263:	53                   	push   %ebx
  100264:	8b 55 0c             	mov    0xc(%ebp),%edx
  100267:	8b 45 08             	mov    0x8(%ebp),%eax
  10026a:	89 15 2c c0 10 00    	mov    %edx,0x10c02c
  100270:	8d 14 92             	lea    (%edx,%edx,4),%edx
  100273:	c1 e2 04             	shl    $0x4,%edx
  100276:	a3 28 c0 10 00       	mov    %eax,0x10c028
  10027b:	8d 0c 02             	lea    (%edx,%eax,1),%ecx
  10027e:	b8 0e 00 00 00       	mov    $0xe,%eax
  100283:	ba d4 03 00 00       	mov    $0x3d4,%edx
  100288:	ee                   	out    %al,(%dx)
  100289:	89 c8                	mov    %ecx,%eax
  10028b:	ba d5 03 00 00       	mov    $0x3d5,%edx
  100290:	66 c1 e8 08          	shr    $0x8,%ax
  100294:	ee                   	out    %al,(%dx)
  100295:	b8 0f 00 00 00       	mov    $0xf,%eax
  10029a:	ba d4 03 00 00       	mov    $0x3d4,%edx
  10029f:	ee                   	out    %al,(%dx)
  1002a0:	ba d5 03 00 00       	mov    $0x3d5,%edx
  1002a5:	89 c8                	mov    %ecx,%eax
  1002a7:	ee                   	out    %al,(%dx)
  1002a8:	8b 5d fc             	mov    -0x4(%ebp),%ebx
  1002ab:	c9                   	leave
  1002ac:	c3                   	ret
  1002ad:	8d 76 00             	lea    0x0(%esi),%esi

001002b0 <terminal_putentryat_visual_debug>:
  1002b0:	55                   	push   %ebp
  1002b1:	8b 0d 20 c0 10 00    	mov    0x10c020,%ecx
  1002b7:	89 e5                	mov    %esp,%ebp
  1002b9:	53                   	push   %ebx
  1002ba:	8b 5d 10             	mov    0x10(%ebp),%ebx
  1002bd:	8b 45 0c             	mov    0xc(%ebp),%eax
  1002c0:	8b 55 14             	mov    0x14(%ebp),%edx
  1002c3:	83 fb 4f             	cmp    $0x4f,%ebx
  1002c6:	77 28                	ja     1002f0 <terminal_putentryat_visual_debug+0x40>
  1002c8:	83 fa 18             	cmp    $0x18,%edx
  1002cb:	77 23                	ja     1002f0 <terminal_putentryat_visual_debug+0x40>
  1002cd:	8d 14 92             	lea    (%edx,%edx,4),%edx
  1002d0:	c1 e0 08             	shl    $0x8,%eax
  1002d3:	c1 e2 04             	shl    $0x4,%edx
  1002d6:	01 da                	add    %ebx,%edx
  1002d8:	0f b6 5d 08          	movzbl 0x8(%ebp),%ebx
  1002dc:	09 d8                	or     %ebx,%eax
  1002de:	8b 5d fc             	mov    -0x4(%ebp),%ebx
  1002e1:	66 89 04 51          	mov    %ax,(%ecx,%edx,2)
  1002e5:	c9                   	leave
  1002e6:	c3                   	ret
  1002e7:	2e 8d b4 26 00 00 00 	lea    %cs:0x0(%esi,%eiz,1),%esi
  1002ee:	00 
  1002ef:	90                   	nop
  1002f0:	b8 21 4f 00 00       	mov    $0x4f21,%eax
  1002f5:	8b 5d fc             	mov    -0x4(%ebp),%ebx
  1002f8:	66 89 01             	mov    %ax,(%ecx)
  1002fb:	c9                   	leave
  1002fc:	c3                   	ret
  1002fd:	8d 76 00             	lea    0x0(%esi),%esi

00100300 <terminal_putentryat_interrupt_debug>:
  100300:	55                   	push   %ebp
  100301:	89 e5                	mov    %esp,%ebp
  100303:	8b 4d 10             	mov    0x10(%ebp),%ecx
  100306:	8b 45 0c             	mov    0xc(%ebp),%eax
  100309:	8b 55 14             	mov    0x14(%ebp),%edx
  10030c:	83 f9 4f             	cmp    $0x4f,%ecx
  10030f:	77 27                	ja     100338 <terminal_putentryat_interrupt_debug+0x38>
  100311:	83 fa 18             	cmp    $0x18,%edx
  100314:	77 22                	ja     100338 <terminal_putentryat_interrupt_debug+0x38>
  100316:	8d 14 92             	lea    (%edx,%edx,4),%edx
  100319:	c1 e0 08             	shl    $0x8,%eax
  10031c:	c1 e2 04             	shl    $0x4,%edx
  10031f:	01 ca                	add    %ecx,%edx
  100321:	0f b6 4d 08          	movzbl 0x8(%ebp),%ecx
  100325:	09 c8                	or     %ecx,%eax
  100327:	8b 0d 20 c0 10 00    	mov    0x10c020,%ecx
  10032d:	66 89 04 51          	mov    %ax,(%ecx,%edx,2)
  100331:	5d                   	pop    %ebp
  100332:	c3                   	ret
  100333:	2e 8d 74 26 00       	lea    %cs:0x0(%esi,%eiz,1),%esi
  100338:	cc                   	int3
  100339:	5d                   	pop    %ebp
  10033a:	c3                   	ret
  10033b:	2e 8d 74 26 00       	lea    %cs:0x0(%esi,%eiz,1),%esi

00100340 <terminal_putentryat>:
  100340:	55                   	push   %ebp
  100341:	89 e5                	mov    %esp,%ebp
  100343:	57                   	push   %edi
  100344:	8b 45 0c             	mov    0xc(%ebp),%eax
  100347:	56                   	push   %esi
  100348:	53                   	push   %ebx
  100349:	8b 5d 08             	mov    0x8(%ebp),%ebx
  10034c:	83 7d 10 4f          	cmpl   $0x4f,0x10(%ebp)
  100350:	77 2e                	ja     100380 <terminal_putentryat+0x40>
  100352:	83 7d 14 18          	cmpl   $0x18,0x14(%ebp)
  100356:	77 28                	ja     100380 <terminal_putentryat+0x40>
  100358:	8b 75 14             	mov    0x14(%ebp),%esi
  10035b:	0f b6 db             	movzbl %bl,%ebx
  10035e:	8b 0d 20 c0 10 00    	mov    0x10c020,%ecx
  100364:	c1 e0 08             	shl    $0x8,%eax
  100367:	09 d8                	or     %ebx,%eax
  100369:	8d 14 b6             	lea    (%esi,%esi,4),%edx
  10036c:	c1 e2 04             	shl    $0x4,%edx
  10036f:	03 55 10             	add    0x10(%ebp),%edx
  100372:	66 89 04 51          	mov    %ax,(%ecx,%edx,2)
  100376:	5b                   	pop    %ebx
  100377:	5e                   	pop    %esi
  100378:	5f                   	pop    %edi
  100379:	5d                   	pop    %ebp
  10037a:	c3                   	ret
  10037b:	2e 8d 74 26 00       	lea    %cs:0x0(%esi,%eiz,1),%esi
  100380:	0f b6 0d 24 c0 10 00 	movzbl 0x10c024,%ecx
  100387:	8b 15 20 c0 10 00    	mov    0x10c020,%edx
  10038d:	c1 e1 08             	shl    $0x8,%ecx
  100390:	89 cf                	mov    %ecx,%edi
  100392:	89 ce                	mov    %ecx,%esi
  100394:	83 c9 47             	or     $0x47,%ecx
  100397:	83 cf 42             	or     $0x42,%edi
  10039a:	83 ce 55             	or     $0x55,%esi
  10039d:	66 89 4a 04          	mov    %cx,0x4(%edx)
  1003a1:	66 89 3a             	mov    %di,(%edx)
  1003a4:	66 89 72 02          	mov    %si,0x2(%edx)
  1003a8:	66 89 7a 06          	mov    %di,0x6(%edx)
  1003ac:	66 89 72 08          	mov    %si,0x8(%edx)
  1003b0:	66 89 4a 0a          	mov    %cx,0xa(%edx)
  1003b4:	66 89 7a 0c          	mov    %di,0xc(%edx)
  1003b8:	66 89 72 0e          	mov    %si,0xe(%edx)
  1003bc:	66 89 4a 10          	mov    %cx,0x10(%edx)
  1003c0:	f4                   	hlt
  1003c1:	eb 95                	jmp    100358 <terminal_putentryat+0x18>
  1003c3:	2e 8d b4 26 00 00 00 	lea    %cs:0x0(%esi,%eiz,1),%esi
  1003ca:	00 
  1003cb:	2e 8d 74 26 00       	lea    %cs:0x0(%esi,%eiz,1),%esi

001003d0 <terminal_scroll>:
  1003d0:	55                   	push   %ebp
  1003d1:	89 e5                	mov    %esp,%ebp
  1003d3:	56                   	push   %esi
  1003d4:	8b 35 20 c0 10 00    	mov    0x10c020,%esi
  1003da:	53                   	push   %ebx
  1003db:	8d 8e a0 00 00 00    	lea    0xa0(%esi),%ecx
  1003e1:	8d 9e a0 0f 00 00    	lea    0xfa0(%esi),%ebx
  1003e7:	2e 8d b4 26 00 00 00 	lea    %cs:0x0(%esi,%eiz,1),%esi
  1003ee:	00 
  1003ef:	90                   	nop
  1003f0:	8d 81 60 ff ff ff    	lea    -0xa0(%ecx),%eax
  1003f6:	2e 8d b4 26 00 00 00 	lea    %cs:0x0(%esi,%eiz,1),%esi
  1003fd:	00 
  1003fe:	66 90                	xchg   %ax,%ax
  100400:	0f b7 90 a0 00 00 00 	movzwl 0xa0(%eax),%edx
  100407:	83 c0 02             	add    $0x2,%eax
  10040a:	66 89 50 fe          	mov    %dx,-0x2(%eax)
  10040e:	39 c8                	cmp    %ecx,%eax
  100410:	75 ee                	jne    100400 <terminal_scroll+0x30>
  100412:	8d 88 a0 00 00 00    	lea    0xa0(%eax),%ecx
  100418:	39 d9                	cmp    %ebx,%ecx
  10041a:	75 d4                	jne    1003f0 <terminal_scroll+0x20>
  10041c:	0f b6 15 24 c0 10 00 	movzbl 0x10c024,%edx
  100423:	8d 86 00 0f 00 00    	lea    0xf00(%esi),%eax
  100429:	89 d9                	mov    %ebx,%ecx
  10042b:	29 c1                	sub    %eax,%ecx
  10042d:	c1 e2 08             	shl    $0x8,%edx
  100430:	83 ca 20             	or     $0x20,%edx
  100433:	83 e1 02             	and    $0x2,%ecx
  100436:	74 18                	je     100450 <terminal_scroll+0x80>
  100438:	66 89 10             	mov    %dx,(%eax)
  10043b:	8d 86 02 0f 00 00    	lea    0xf02(%esi),%eax
  100441:	39 d8                	cmp    %ebx,%eax
  100443:	74 19                	je     10045e <terminal_scroll+0x8e>
  100445:	2e 8d b4 26 00 00 00 	lea    %cs:0x0(%esi,%eiz,1),%esi
  10044c:	00 
  10044d:	8d 76 00             	lea    0x0(%esi),%esi
  100450:	66 89 10             	mov    %dx,(%eax)
  100453:	83 c0 04             	add    $0x4,%eax
  100456:	66 89 50 fe          	mov    %dx,-0x2(%eax)
  10045a:	39 d8                	cmp    %ebx,%eax
  10045c:	75 f2                	jne    100450 <terminal_scroll+0x80>
  10045e:	5b                   	pop    %ebx
  10045f:	5e                   	pop    %esi
  100460:	5d                   	pop    %ebp
  100461:	c3                   	ret
  100462:	2e 8d b4 26 00 00 00 	lea    %cs:0x0(%esi,%eiz,1),%esi
  100469:	00 
  10046a:	8d b6 00 00 00 00    	lea    0x0(%esi),%esi

00100470 <terminal_scrolln>:
  100470:	55                   	push   %ebp
  100471:	89 e5                	mov    %esp,%ebp
  100473:	57                   	push   %edi
  100474:	56                   	push   %esi
  100475:	53                   	push   %ebx
  100476:	83 ec 10             	sub    $0x10,%esp
  100479:	8b 45 08             	mov    0x8(%ebp),%eax
  10047c:	85 c0                	test   %eax,%eax
  10047e:	0f 84 c4 00 00 00    	je     100548 <terminal_scrolln+0xd8>
  100484:	0f b6 15 24 c0 10 00 	movzbl 0x10c024,%edx
  10048b:	8b 3d 20 c0 10 00    	mov    0x10c020,%edi
  100491:	c1 e2 08             	shl    $0x8,%edx
  100494:	83 ca 20             	or     $0x20,%edx
  100497:	83 f8 18             	cmp    $0x18,%eax
  10049a:	0f 87 b0 00 00 00    	ja     100550 <terminal_scrolln+0xe0>
  1004a0:	b9 19 00 00 00       	mov    $0x19,%ecx
  1004a5:	69 d8 60 ff ff ff    	imul   $0xffffff60,%eax,%ebx
  1004ab:	66 89 55 e6          	mov    %dx,-0x1a(%ebp)
  1004af:	8d b7 a0 00 00 00    	lea    0xa0(%edi),%esi
  1004b5:	29 c1                	sub    %eax,%ecx
  1004b7:	89 75 e8             	mov    %esi,-0x18(%ebp)
  1004ba:	8d 04 89             	lea    (%ecx,%ecx,4),%eax
  1004bd:	31 c9                	xor    %ecx,%ecx
  1004bf:	c1 e0 05             	shl    $0x5,%eax
  1004c2:	29 de                	sub    %ebx,%esi
  1004c4:	89 45 ec             	mov    %eax,-0x14(%ebp)
  1004c7:	2e 8d b4 26 00 00 00 	lea    %cs:0x0(%esi,%eiz,1),%esi
  1004ce:	00 
  1004cf:	90                   	nop
  1004d0:	89 7d f0             	mov    %edi,-0x10(%ebp)
  1004d3:	89 f8                	mov    %edi,%eax
  1004d5:	29 d8                	sub    %ebx,%eax
  1004d7:	2e 8d b4 26 00 00 00 	lea    %cs:0x0(%esi,%eiz,1),%esi
  1004de:	00 
  1004df:	90                   	nop
  1004e0:	0f b7 38             	movzwl (%eax),%edi
  1004e3:	8d 14 18             	lea    (%eax,%ebx,1),%edx
  1004e6:	83 c0 02             	add    $0x2,%eax
  1004e9:	66 89 3c 0a          	mov    %di,(%edx,%ecx,1)
  1004ed:	39 f0                	cmp    %esi,%eax
  1004ef:	75 ef                	jne    1004e0 <terminal_scrolln+0x70>
  1004f1:	8b 7d f0             	mov    -0x10(%ebp),%edi
  1004f4:	81 eb a0 00 00 00    	sub    $0xa0,%ebx
  1004fa:	81 c1 a0 00 00 00    	add    $0xa0,%ecx
  100500:	8d b0 a0 00 00 00    	lea    0xa0(%eax),%esi
  100506:	3b 4d ec             	cmp    -0x14(%ebp),%ecx
  100509:	75 c5                	jne    1004d0 <terminal_scrolln+0x60>
  10050b:	8b 45 e8             	mov    -0x18(%ebp),%eax
  10050e:	0f b7 55 e6          	movzwl -0x1a(%ebp),%edx
  100512:	81 c7 40 10 00 00    	add    $0x1040,%edi
  100518:	01 c1                	add    %eax,%ecx
  10051a:	8d b6 00 00 00 00    	lea    0x0(%esi),%esi
  100520:	8d 81 60 ff ff ff    	lea    -0xa0(%ecx),%eax
  100526:	2e 8d b4 26 00 00 00 	lea    %cs:0x0(%esi,%eiz,1),%esi
  10052d:	00 
  10052e:	66 90                	xchg   %ax,%ax
  100530:	66 89 10             	mov    %dx,(%eax)
  100533:	83 c0 04             	add    $0x4,%eax
  100536:	66 89 50 fe          	mov    %dx,-0x2(%eax)
  10053a:	39 c8                	cmp    %ecx,%eax
  10053c:	75 f2                	jne    100530 <terminal_scrolln+0xc0>
  10053e:	81 c1 a0 00 00 00    	add    $0xa0,%ecx
  100544:	39 f9                	cmp    %edi,%ecx
  100546:	75 d8                	jne    100520 <terminal_scrolln+0xb0>
  100548:	83 c4 10             	add    $0x10,%esp
  10054b:	5b                   	pop    %ebx
  10054c:	5e                   	pop    %esi
  10054d:	5f                   	pop    %edi
  10054e:	5d                   	pop    %ebp
  10054f:	c3                   	ret
  100550:	89 f8                	mov    %edi,%eax
  100552:	8d 8f a0 0f 00 00    	lea    0xfa0(%edi),%ecx
  100558:	2e 8d b4 26 00 00 00 	lea    %cs:0x0(%esi,%eiz,1),%esi
  10055f:	00 
  100560:	66 89 10             	mov    %dx,(%eax)
  100563:	83 c0 04             	add    $0x4,%eax
  100566:	66 89 50 fe          	mov    %dx,-0x2(%eax)
  10056a:	39 c1                	cmp    %eax,%ecx
  10056c:	75 f2                	jne    100560 <terminal_scrolln+0xf0>
  10056e:	83 c4 10             	add    $0x10,%esp
  100571:	5b                   	pop    %ebx
  100572:	5e                   	pop    %esi
  100573:	5f                   	pop    %edi
  100574:	5d                   	pop    %ebp
  100575:	c3                   	ret
  100576:	2e 8d b4 26 00 00 00 	lea    %cs:0x0(%esi,%eiz,1),%esi
  10057d:	00 
  10057e:	66 90                	xchg   %ax,%ax

00100580 <terminal_putchar>:
  100580:	55                   	push   %ebp
  100581:	89 e5                	mov    %esp,%ebp
  100583:	56                   	push   %esi
  100584:	53                   	push   %ebx
  100585:	83 ec 10             	sub    $0x10,%esp
  100588:	8b 45 08             	mov    0x8(%ebp),%eax
  10058b:	3c 08                	cmp    $0x8,%al
  10058d:	0f 84 0d 01 00 00    	je     1006a0 <terminal_putchar+0x120>
  100593:	8b 15 2c c0 10 00    	mov    0x10c02c,%edx
  100599:	3c 0a                	cmp    $0xa,%al
  10059b:	0f 84 9f 00 00 00    	je     100640 <terminal_putchar+0xc0>
  1005a1:	8b 0d 28 c0 10 00    	mov    0x10c028,%ecx
  1005a7:	52                   	push   %edx
  1005a8:	0f b6 c0             	movzbl %al,%eax
  1005ab:	89 55 f0             	mov    %edx,-0x10(%ebp)
  1005ae:	51                   	push   %ecx
  1005af:	0f b6 1d 24 c0 10 00 	movzbl 0x10c024,%ebx
  1005b6:	89 4d f4             	mov    %ecx,-0xc(%ebp)
  1005b9:	53                   	push   %ebx
  1005ba:	50                   	push   %eax
  1005bb:	e8 80 fd ff ff       	call   100340 <terminal_putentryat>
  1005c0:	8b 4d f4             	mov    -0xc(%ebp),%ecx
  1005c3:	83 c4 10             	add    $0x10,%esp
  1005c6:	8b 55 f0             	mov    -0x10(%ebp),%edx
  1005c9:	8d 41 01             	lea    0x1(%ecx),%eax
  1005cc:	83 f8 4f             	cmp    $0x4f,%eax
  1005cf:	77 3f                	ja     100610 <terminal_putchar+0x90>
  1005d1:	8d 0c 92             	lea    (%edx,%edx,4),%ecx
  1005d4:	a3 28 c0 10 00       	mov    %eax,0x10c028
  1005d9:	c1 e1 04             	shl    $0x4,%ecx
  1005dc:	01 c1                	add    %eax,%ecx
  1005de:	0f b6 f5             	movzbl %ch,%esi
  1005e1:	b8 0e 00 00 00       	mov    $0xe,%eax
  1005e6:	ba d4 03 00 00       	mov    $0x3d4,%edx
  1005eb:	ee                   	out    %al,(%dx)
  1005ec:	ba d5 03 00 00       	mov    $0x3d5,%edx
  1005f1:	89 f0                	mov    %esi,%eax
  1005f3:	ee                   	out    %al,(%dx)
  1005f4:	b8 0f 00 00 00       	mov    $0xf,%eax
  1005f9:	ba d4 03 00 00       	mov    $0x3d4,%edx
  1005fe:	ee                   	out    %al,(%dx)
  1005ff:	ba d5 03 00 00       	mov    $0x3d5,%edx
  100604:	89 c8                	mov    %ecx,%eax
  100606:	ee                   	out    %al,(%dx)
  100607:	8d 65 f8             	lea    -0x8(%ebp),%esp
  10060a:	5b                   	pop    %ebx
  10060b:	5e                   	pop    %esi
  10060c:	5d                   	pop    %ebp
  10060d:	c3                   	ret
  10060e:	66 90                	xchg   %ax,%ax
  100610:	c7 05 28 c0 10 00 00 	movl   $0x0,0x10c028
  100617:	00 00 00 
  10061a:	83 c2 01             	add    $0x1,%edx
  10061d:	89 15 2c c0 10 00    	mov    %edx,0x10c02c
  100623:	83 fa 18             	cmp    $0x18,%edx
  100626:	0f 87 04 01 00 00    	ja     100730 <terminal_putchar+0x1b0>
  10062c:	0f b6 ca             	movzbl %dl,%ecx
  10062f:	8d 0c 89             	lea    (%ecx,%ecx,4),%ecx
  100632:	89 c8                	mov    %ecx,%eax
  100634:	c1 e1 04             	shl    $0x4,%ecx
  100637:	66 c1 e8 04          	shr    $0x4,%ax
  10063b:	89 c6                	mov    %eax,%esi
  10063d:	eb a2                	jmp    1005e1 <terminal_putchar+0x61>
  10063f:	90                   	nop
  100640:	83 fa 17             	cmp    $0x17,%edx
  100643:	0f 87 c7 00 00 00    	ja     100710 <terminal_putchar+0x190>
  100649:	83 c2 01             	add    $0x1,%edx
  10064c:	0f b6 c2             	movzbl %dl,%eax
  10064f:	8d 04 80             	lea    (%eax,%eax,4),%eax
  100652:	89 c3                	mov    %eax,%ebx
  100654:	c1 e0 04             	shl    $0x4,%eax
  100657:	66 c1 eb 04          	shr    $0x4,%bx
  10065b:	89 c6                	mov    %eax,%esi
  10065d:	89 15 2c c0 10 00    	mov    %edx,0x10c02c
  100663:	b8 0e 00 00 00       	mov    $0xe,%eax
  100668:	ba d4 03 00 00       	mov    $0x3d4,%edx
  10066d:	c7 05 28 c0 10 00 00 	movl   $0x0,0x10c028
  100674:	00 00 00 
  100677:	ee                   	out    %al,(%dx)
  100678:	ba d5 03 00 00       	mov    $0x3d5,%edx
  10067d:	89 d8                	mov    %ebx,%eax
  10067f:	ee                   	out    %al,(%dx)
  100680:	b8 0f 00 00 00       	mov    $0xf,%eax
  100685:	ba d4 03 00 00       	mov    $0x3d4,%edx
  10068a:	ee                   	out    %al,(%dx)
  10068b:	ba d5 03 00 00       	mov    $0x3d5,%edx
  100690:	89 f0                	mov    %esi,%eax
  100692:	ee                   	out    %al,(%dx)
  100693:	8d 65 f8             	lea    -0x8(%ebp),%esp
  100696:	5b                   	pop    %ebx
  100697:	5e                   	pop    %esi
  100698:	5d                   	pop    %ebp
  100699:	c3                   	ret
  10069a:	8d b6 00 00 00 00    	lea    0x0(%esi),%esi
  1006a0:	a1 28 c0 10 00       	mov    0x10c028,%eax
  1006a5:	85 c0                	test   %eax,%eax
  1006a7:	0f 84 5a ff ff ff    	je     100607 <terminal_putchar+0x87>
  1006ad:	8d 58 ff             	lea    -0x1(%eax),%ebx
  1006b0:	a1 2c c0 10 00       	mov    0x10c02c,%eax
  1006b5:	89 1d 28 c0 10 00    	mov    %ebx,0x10c028
  1006bb:	50                   	push   %eax
  1006bc:	89 45 f4             	mov    %eax,-0xc(%ebp)
  1006bf:	53                   	push   %ebx
  1006c0:	0f b6 15 24 c0 10 00 	movzbl 0x10c024,%edx
  1006c7:	52                   	push   %edx
  1006c8:	6a 20                	push   $0x20
  1006ca:	e8 71 fc ff ff       	call   100340 <terminal_putentryat>
  1006cf:	8b 45 f4             	mov    -0xc(%ebp),%eax
  1006d2:	ba d4 03 00 00       	mov    $0x3d4,%edx
  1006d7:	8d 04 80             	lea    (%eax,%eax,4),%eax
  1006da:	c1 e0 04             	shl    $0x4,%eax
  1006dd:	8d 0c 18             	lea    (%eax,%ebx,1),%ecx
  1006e0:	b8 0e 00 00 00       	mov    $0xe,%eax
  1006e5:	ee                   	out    %al,(%dx)
  1006e6:	89 c8                	mov    %ecx,%eax
  1006e8:	ba d5 03 00 00       	mov    $0x3d5,%edx
  1006ed:	66 c1 e8 08          	shr    $0x8,%ax
  1006f1:	ee                   	out    %al,(%dx)
  1006f2:	b8 0f 00 00 00       	mov    $0xf,%eax
  1006f7:	ba d4 03 00 00       	mov    $0x3d4,%edx
  1006fc:	ee                   	out    %al,(%dx)
  1006fd:	ba d5 03 00 00       	mov    $0x3d5,%edx
  100702:	89 c8                	mov    %ecx,%eax
  100704:	ee                   	out    %al,(%dx)
  100705:	83 c4 10             	add    $0x10,%esp
  100708:	e9 fa fe ff ff       	jmp    100607 <terminal_putchar+0x87>
  10070d:	8d 76 00             	lea    0x0(%esi),%esi
  100710:	e8 bb fc ff ff       	call   1003d0 <terminal_scroll>
  100715:	be 80 ff ff ff       	mov    $0xffffff80,%esi
  10071a:	ba 18 00 00 00       	mov    $0x18,%edx
  10071f:	bb 07 00 00 00       	mov    $0x7,%ebx
  100724:	e9 34 ff ff ff       	jmp    10065d <terminal_putchar+0xdd>
  100729:	8d b4 26 00 00 00 00 	lea    0x0(%esi,%eiz,1),%esi
  100730:	e8 9b fc ff ff       	call   1003d0 <terminal_scroll>
  100735:	be 07 00 00 00       	mov    $0x7,%esi
  10073a:	b9 80 ff ff ff       	mov    $0xffffff80,%ecx
  10073f:	c7 05 2c c0 10 00 18 	movl   $0x18,0x10c02c
  100746:	00 00 00 
  100749:	e9 93 fe ff ff       	jmp    1005e1 <terminal_putchar+0x61>
  10074e:	66 90                	xchg   %ax,%ax

00100750 <terminal_putchar_at>:
  100750:	55                   	push   %ebp
  100751:	89 e5                	mov    %esp,%ebp
  100753:	57                   	push   %edi
  100754:	56                   	push   %esi
  100755:	53                   	push   %ebx
  100756:	83 ec 0c             	sub    $0xc,%esp
  100759:	8b 75 0c             	mov    0xc(%ebp),%esi
  10075c:	8b 5d 08             	mov    0x8(%ebp),%ebx
  10075f:	8b 7d 10             	mov    0x10(%ebp),%edi
  100762:	83 fe 4f             	cmp    $0x4f,%esi
  100765:	77 29                	ja     100790 <terminal_putchar_at+0x40>
  100767:	83 ff 18             	cmp    $0x18,%edi
  10076a:	77 24                	ja     100790 <terminal_putchar_at+0x40>
  10076c:	57                   	push   %edi
  10076d:	0f b6 db             	movzbl %bl,%ebx
  100770:	56                   	push   %esi
  100771:	0f b6 05 24 c0 10 00 	movzbl 0x10c024,%eax
  100778:	50                   	push   %eax
  100779:	53                   	push   %ebx
  10077a:	e8 c1 fb ff ff       	call   100340 <terminal_putentryat>
  10077f:	83 c4 10             	add    $0x10,%esp
  100782:	8d 65 f4             	lea    -0xc(%ebp),%esp
  100785:	5b                   	pop    %ebx
  100786:	5e                   	pop    %esi
  100787:	5f                   	pop    %edi
  100788:	5d                   	pop    %ebp
  100789:	c3                   	ret
  10078a:	8d b6 00 00 00 00    	lea    0x0(%esi),%esi
  100790:	83 ec 04             	sub    $0x4,%esp
  100793:	57                   	push   %edi
  100794:	56                   	push   %esi
  100795:	68 e0 50 10 00       	push   $0x1050e0
  10079a:	e8 91 43 00 00       	call   104b30 <printf>
  10079f:	e8 5c 0d 00 00       	call   101500 <halt>
  1007a4:	83 c4 10             	add    $0x10,%esp
  1007a7:	eb c3                	jmp    10076c <terminal_putchar_at+0x1c>
  1007a9:	8d b4 26 00 00 00 00 	lea    0x0(%esi,%eiz,1),%esi

001007b0 <terminal_write>:
  1007b0:	55                   	push   %ebp
  1007b1:	89 e5                	mov    %esp,%ebp
  1007b3:	56                   	push   %esi
  1007b4:	53                   	push   %ebx
  1007b5:	8b 75 0c             	mov    0xc(%ebp),%esi
  1007b8:	85 f6                	test   %esi,%esi
  1007ba:	74 2a                	je     1007e6 <terminal_write+0x36>
  1007bc:	8b 5d 08             	mov    0x8(%ebp),%ebx
  1007bf:	01 de                	add    %ebx,%esi
  1007c1:	2e 8d b4 26 00 00 00 	lea    %cs:0x0(%esi,%eiz,1),%esi
  1007c8:	00 
  1007c9:	8d b4 26 00 00 00 00 	lea    0x0(%esi,%eiz,1),%esi
  1007d0:	0f be 03             	movsbl (%ebx),%eax
  1007d3:	83 ec 0c             	sub    $0xc,%esp
  1007d6:	83 c3 01             	add    $0x1,%ebx
  1007d9:	50                   	push   %eax
  1007da:	e8 a1 fd ff ff       	call   100580 <terminal_putchar>
  1007df:	83 c4 10             	add    $0x10,%esp
  1007e2:	39 f3                	cmp    %esi,%ebx
  1007e4:	75 ea                	jne    1007d0 <terminal_write+0x20>
  1007e6:	8d 65 f8             	lea    -0x8(%ebp),%esp
  1007e9:	5b                   	pop    %ebx
  1007ea:	5e                   	pop    %esi
  1007eb:	5d                   	pop    %ebp
  1007ec:	c3                   	ret
  1007ed:	8d 76 00             	lea    0x0(%esi),%esi

001007f0 <terminal_write_dec>:
  1007f0:	55                   	push   %ebp
  1007f1:	b9 0b 00 00 00       	mov    $0xb,%ecx
  1007f6:	31 c0                	xor    %eax,%eax
  1007f8:	89 e5                	mov    %esp,%ebp
  1007fa:	57                   	push   %edi
  1007fb:	56                   	push   %esi
  1007fc:	8d 75 bc             	lea    -0x44(%ebp),%esi
  1007ff:	53                   	push   %ebx
  100800:	89 f7                	mov    %esi,%edi
  100802:	83 ec 3c             	sub    $0x3c,%esp
  100805:	8b 5d 08             	mov    0x8(%ebp),%ebx
  100808:	f3 ab                	rep stos %eax,%es:(%edi)
  10080a:	eb 34                	jmp    100840 <terminal_write_dec+0x50>
  10080c:	2e 8d b4 26 00 00 00 	lea    %cs:0x0(%esi,%eiz,1),%esi
  100813:	00 
  100814:	2e 8d b4 26 00 00 00 	lea    %cs:0x0(%esi,%eiz,1),%esi
  10081b:	00 
  10081c:	2e 8d b4 26 00 00 00 	lea    %cs:0x0(%esi,%eiz,1),%esi
  100823:	00 
  100824:	2e 8d b4 26 00 00 00 	lea    %cs:0x0(%esi,%eiz,1),%esi
  10082b:	00 
  10082c:	2e 8d b4 26 00 00 00 	lea    %cs:0x0(%esi,%eiz,1),%esi
  100833:	00 
  100834:	2e 8d b4 26 00 00 00 	lea    %cs:0x0(%esi,%eiz,1),%esi
  10083b:	00 
  10083c:	8d 74 26 00          	lea    0x0(%esi,%eiz,1),%esi
  100840:	b8 cd cc cc cc       	mov    $0xcccccccd,%eax
  100845:	89 df                	mov    %ebx,%edi
  100847:	83 c1 01             	add    $0x1,%ecx
  10084a:	f7 e3                	mul    %ebx
  10084c:	c1 ea 03             	shr    $0x3,%edx
  10084f:	8d 04 92             	lea    (%edx,%edx,4),%eax
  100852:	01 c0                	add    %eax,%eax
  100854:	29 c7                	sub    %eax,%edi
  100856:	83 fb 09             	cmp    $0x9,%ebx
  100859:	89 d3                	mov    %edx,%ebx
  10085b:	89 7c 8e fc          	mov    %edi,-0x4(%esi,%ecx,4)
  10085f:	77 df                	ja     100840 <terminal_write_dec+0x50>
  100861:	8d 1c 8e             	lea    (%esi,%ecx,4),%ebx
  100864:	2e 8d b4 26 00 00 00 	lea    %cs:0x0(%esi,%eiz,1),%esi
  10086b:	00 
  10086c:	8d 74 26 00          	lea    0x0(%esi,%eiz,1),%esi
  100870:	0f b6 43 fc          	movzbl -0x4(%ebx),%eax
  100874:	83 ec 0c             	sub    $0xc,%esp
  100877:	83 eb 04             	sub    $0x4,%ebx
  10087a:	83 c0 30             	add    $0x30,%eax
  10087d:	0f be c0             	movsbl %al,%eax
  100880:	50                   	push   %eax
  100881:	e8 fa fc ff ff       	call   100580 <terminal_putchar>
  100886:	83 c4 10             	add    $0x10,%esp
  100889:	39 de                	cmp    %ebx,%esi
  10088b:	75 e3                	jne    100870 <terminal_write_dec+0x80>
  10088d:	8d 65 f4             	lea    -0xc(%ebp),%esp
  100890:	5b                   	pop    %ebx
  100891:	5e                   	pop    %esi
  100892:	5f                   	pop    %edi
  100893:	5d                   	pop    %ebp
  100894:	c3                   	ret
  100895:	2e 8d b4 26 00 00 00 	lea    %cs:0x0(%esi,%eiz,1),%esi
  10089c:	00 
  10089d:	8d 76 00             	lea    0x0(%esi),%esi

001008a0 <terminal_writestring>:
  1008a0:	55                   	push   %ebp
  1008a1:	89 e5                	mov    %esp,%ebp
  1008a3:	56                   	push   %esi
  1008a4:	53                   	push   %ebx
  1008a5:	8b 5d 08             	mov    0x8(%ebp),%ebx
  1008a8:	83 ec 0c             	sub    $0xc,%esp
  1008ab:	53                   	push   %ebx
  1008ac:	e8 ef 1e 00 00       	call   1027a0 <strlen>
  1008b1:	83 c4 10             	add    $0x10,%esp
  1008b4:	85 c0                	test   %eax,%eax
  1008b6:	74 1e                	je     1008d6 <terminal_writestring+0x36>
  1008b8:	8d 34 03             	lea    (%ebx,%eax,1),%esi
  1008bb:	2e 8d 74 26 00       	lea    %cs:0x0(%esi,%eiz,1),%esi
  1008c0:	0f be 03             	movsbl (%ebx),%eax
  1008c3:	83 ec 0c             	sub    $0xc,%esp
  1008c6:	83 c3 01             	add    $0x1,%ebx
  1008c9:	50                   	push   %eax
  1008ca:	e8 b1 fc ff ff       	call   100580 <terminal_putchar>
  1008cf:	83 c4 10             	add    $0x10,%esp
  1008d2:	39 f3                	cmp    %esi,%ebx
  1008d4:	75 ea                	jne    1008c0 <terminal_writestring+0x20>
  1008d6:	8d 65 f8             	lea    -0x8(%ebp),%esp
  1008d9:	5b                   	pop    %ebx
  1008da:	5e                   	pop    %esi
  1008db:	5d                   	pop    %ebp
  1008dc:	c3                   	ret
  1008dd:	8d 76 00             	lea    0x0(%esi),%esi

001008e0 <print_colored>:
  1008e0:	55                   	push   %ebp
  1008e1:	89 e5                	mov    %esp,%ebp
  1008e3:	57                   	push   %edi
  1008e4:	56                   	push   %esi
  1008e5:	53                   	push   %ebx
  1008e6:	83 ec 18             	sub    $0x18,%esp
  1008e9:	0f b6 45 10          	movzbl 0x10(%ebp),%eax
  1008ed:	8b 5d 08             	mov    0x8(%ebp),%ebx
  1008f0:	0f b6 3d 24 c0 10 00 	movzbl 0x10c024,%edi
  1008f7:	c1 e0 04             	shl    $0x4,%eax
  1008fa:	0a 45 0c             	or     0xc(%ebp),%al
  1008fd:	a2 24 c0 10 00       	mov    %al,0x10c024
  100902:	53                   	push   %ebx
  100903:	e8 98 1e 00 00       	call   1027a0 <strlen>
  100908:	83 c4 10             	add    $0x10,%esp
  10090b:	85 c0                	test   %eax,%eax
  10090d:	74 27                	je     100936 <print_colored+0x56>
  10090f:	8d 34 03             	lea    (%ebx,%eax,1),%esi
  100912:	2e 8d b4 26 00 00 00 	lea    %cs:0x0(%esi,%eiz,1),%esi
  100919:	00 
  10091a:	8d b6 00 00 00 00    	lea    0x0(%esi),%esi
  100920:	0f be 03             	movsbl (%ebx),%eax
  100923:	83 ec 0c             	sub    $0xc,%esp
  100926:	83 c3 01             	add    $0x1,%ebx
  100929:	50                   	push   %eax
  10092a:	e8 51 fc ff ff       	call   100580 <terminal_putchar>
  10092f:	83 c4 10             	add    $0x10,%esp
  100932:	39 f3                	cmp    %esi,%ebx
  100934:	75 ea                	jne    100920 <print_colored+0x40>
  100936:	89 f8                	mov    %edi,%eax
  100938:	a2 24 c0 10 00       	mov    %al,0x10c024
  10093d:	8d 65 f4             	lea    -0xc(%ebp),%esp
  100940:	5b                   	pop    %ebx
  100941:	5e                   	pop    %esi
  100942:	5f                   	pop    %edi
  100943:	5d                   	pop    %ebp
  100944:	c3                   	ret
  100945:	66 90                	xchg   %ax,%ax
  100947:	66 90                	xchg   %ax,%ax
  100949:	66 90                	xchg   %ax,%ax
  10094b:	66 90                	xchg   %ax,%ax
  10094d:	66 90                	xchg   %ax,%ax
  10094f:	90                   	nop

00100950 <init_serial>:
  100950:	31 c0                	xor    %eax,%eax
  100952:	ba f9 03 00 00       	mov    $0x3f9,%edx
  100957:	ee                   	out    %al,(%dx)
  100958:	b8 80 ff ff ff       	mov    $0xffffff80,%eax
  10095d:	ba fb 03 00 00       	mov    $0x3fb,%edx
  100962:	ee                   	out    %al,(%dx)
  100963:	ba f8 03 00 00       	mov    $0x3f8,%edx
  100968:	b8 03 00 00 00       	mov    $0x3,%eax
  10096d:	ee                   	out    %al,(%dx)
  10096e:	31 c0                	xor    %eax,%eax
  100970:	ba f9 03 00 00       	mov    $0x3f9,%edx
  100975:	ee                   	out    %al,(%dx)
  100976:	b8 03 00 00 00       	mov    $0x3,%eax
  10097b:	ba fb 03 00 00       	mov    $0x3fb,%edx
  100980:	ee                   	out    %al,(%dx)
  100981:	b8 c7 ff ff ff       	mov    $0xffffffc7,%eax
  100986:	ba fa 03 00 00       	mov    $0x3fa,%edx
  10098b:	ee                   	out    %al,(%dx)
  10098c:	b8 0b 00 00 00       	mov    $0xb,%eax
  100991:	ba fc 03 00 00       	mov    $0x3fc,%edx
  100996:	ee                   	out    %al,(%dx)
  100997:	c7 05 30 c0 10 00 01 	movl   $0x1,0x10c030
  10099e:	00 00 00 
  1009a1:	c3                   	ret
  1009a2:	2e 8d b4 26 00 00 00 	lea    %cs:0x0(%esi,%eiz,1),%esi
  1009a9:	00 
  1009aa:	8d b6 00 00 00 00    	lea    0x0(%esi),%esi

001009b0 <serial_transmit_empty>:
  1009b0:	ba fd 03 00 00       	mov    $0x3fd,%edx
  1009b5:	ec                   	in     (%dx),%al
  1009b6:	83 e0 20             	and    $0x20,%eax
  1009b9:	c3                   	ret
  1009ba:	8d b6 00 00 00 00    	lea    0x0(%esi),%esi

001009c0 <serial_putchar>:
  1009c0:	55                   	push   %ebp
  1009c1:	ba fd 03 00 00       	mov    $0x3fd,%edx
  1009c6:	89 e5                	mov    %esp,%ebp
  1009c8:	0f b6 4d 08          	movzbl 0x8(%ebp),%ecx
  1009cc:	8d 74 26 00          	lea    0x0(%esi,%eiz,1),%esi
  1009d0:	ec                   	in     (%dx),%al
  1009d1:	a8 20                	test   $0x20,%al
  1009d3:	74 fb                	je     1009d0 <serial_putchar+0x10>
  1009d5:	ba f8 03 00 00       	mov    $0x3f8,%edx
  1009da:	89 c8                	mov    %ecx,%eax
  1009dc:	ee                   	out    %al,(%dx)
  1009dd:	5d                   	pop    %ebp
  1009de:	c3                   	ret
  1009df:	90                   	nop

001009e0 <serial_write>:
  1009e0:	55                   	push   %ebp
  1009e1:	89 e5                	mov    %esp,%ebp
  1009e3:	57                   	push   %edi
  1009e4:	56                   	push   %esi
  1009e5:	8b 75 08             	mov    0x8(%ebp),%esi
  1009e8:	53                   	push   %ebx
  1009e9:	0f b6 1e             	movzbl (%esi),%ebx
  1009ec:	84 db                	test   %bl,%bl
  1009ee:	74 29                	je     100a19 <serial_write+0x39>
  1009f0:	83 c6 01             	add    $0x1,%esi
  1009f3:	2e 8d b4 26 00 00 00 	lea    %cs:0x0(%esi,%eiz,1),%esi
  1009fa:	00 
  1009fb:	2e 8d 74 26 00       	lea    %cs:0x0(%esi,%eiz,1),%esi
  100a00:	ba fd 03 00 00       	mov    $0x3fd,%edx
  100a05:	ec                   	in     (%dx),%al
  100a06:	a8 20                	test   $0x20,%al
  100a08:	74 f6                	je     100a00 <serial_write+0x20>
  100a0a:	89 d8                	mov    %ebx,%eax
  100a0c:	ba f8 03 00 00       	mov    $0x3f8,%edx
  100a11:	ee                   	out    %al,(%dx)
  100a12:	0f b6 1e             	movzbl (%esi),%ebx
  100a15:	84 db                	test   %bl,%bl
  100a17:	75 d7                	jne    1009f0 <serial_write+0x10>
  100a19:	5b                   	pop    %ebx
  100a1a:	5e                   	pop    %esi
  100a1b:	5f                   	pop    %edi
  100a1c:	5d                   	pop    %ebp
  100a1d:	c3                   	ret
  100a1e:	66 90                	xchg   %ax,%ax

00100a20 <timer_interrupt_handler>:
  100a20:	a1 34 c0 10 00       	mov    0x10c034,%eax
  100a25:	83 c0 01             	add    $0x1,%eax
  100a28:	69 d0 91 7e fb 3a    	imul   $0x3afb7e91,%eax,%edx
  100a2e:	a3 34 c0 10 00       	mov    %eax,0x10c034
  100a33:	c1 ca 04             	ror    $0x4,%edx
  100a36:	81 fa b8 8d 06 00    	cmp    $0x68db8,%edx
  100a3c:	76 12                	jbe    100a50 <timer_interrupt_handler+0x30>
  100a3e:	c7 05 b0 00 e0 fe 00 	movl   $0x0,0xfee000b0
  100a45:	00 00 00 
  100a48:	c3                   	ret
  100a49:	8d b4 26 00 00 00 00 	lea    0x0(%esi,%eiz,1),%esi
  100a50:	55                   	push   %ebp
  100a51:	89 e5                	mov    %esp,%ebp
  100a53:	83 ec 10             	sub    $0x10,%esp
  100a56:	50                   	push   %eax
  100a57:	68 1e 61 10 00       	push   $0x10611e
  100a5c:	e8 cf 40 00 00       	call   104b30 <printf>
  100a61:	83 c4 10             	add    $0x10,%esp
  100a64:	c7 05 b0 00 e0 fe 00 	movl   $0x0,0xfee000b0
  100a6b:	00 00 00 
  100a6e:	c9                   	leave
  100a6f:	c3                   	ret

00100a70 <timer_ticks>:
  100a70:	a1 34 c0 10 00       	mov    0x10c034,%eax
  100a75:	c3                   	ret
  100a76:	2e 8d b4 26 00 00 00 	lea    %cs:0x0(%esi,%eiz,1),%esi
  100a7d:	00 
  100a7e:	66 90                	xchg   %ax,%ax

00100a80 <init_timer>:
  100a80:	55                   	push   %ebp
  100a81:	89 e5                	mov    %esp,%ebp
  100a83:	83 ec 14             	sub    $0x14,%esp
  100a86:	68 18 51 10 00       	push   $0x105118
  100a8b:	e8 a0 40 00 00       	call   104b30 <printf>
  100a90:	58                   	pop    %eax
  100a91:	5a                   	pop    %edx
  100a92:	68 20 0a 10 00       	push   $0x100a20
  100a97:	6a 20                	push   $0x20
  100a99:	e8 b2 07 00 00       	call   101250 <register_interrupt_handler>
  100a9e:	c7 04 24 4c 51 10 00 	movl   $0x10514c,(%esp)
  100aa5:	e8 86 40 00 00       	call   104b30 <printf>
  100aaa:	83 c4 10             	add    $0x10,%esp
  100aad:	c9                   	leave
  100aae:	c3                   	ret
  100aaf:	66 90                	xchg   %ax,%ax
  100ab1:	66 90                	xchg   %ax,%ax
  100ab3:	66 90                	xchg   %ax,%ax
  100ab5:	66 90                	xchg   %ax,%ax
  100ab7:	66 90                	xchg   %ax,%ax
  100ab9:	66 90                	xchg   %ax,%ax
  100abb:	66 90                	xchg   %ax,%ax
  100abd:	66 90                	xchg   %ax,%ax
  100abf:	90                   	nop

00100ac0 <init_descriptor_tables>:
  100ac0:	55                   	push   %ebp
  100ac1:	b8 27 00 00 00       	mov    $0x27,%eax
  100ac6:	89 e5                	mov    %esp,%ebp
  100ac8:	83 ec 14             	sub    $0x14,%esp
  100acb:	66 a3 60 c8 10 00    	mov    %ax,0x10c860
  100ad1:	68 60 c8 10 00       	push   $0x10c860
  100ad6:	c7 05 62 c8 10 00 80 	movl   $0x10c880,0x10c862
  100add:	c8 10 00 
  100ae0:	c7 05 80 c8 10 00 00 	movl   $0x0,0x10c880
  100ae7:	00 00 00 
  100aea:	c7 05 84 c8 10 00 00 	movl   $0x0,0x10c884
  100af1:	00 00 00 
  100af4:	c7 05 88 c8 10 00 ff 	movl   $0xffff,0x10c888
  100afb:	ff 00 00 
  100afe:	c7 05 8c c8 10 00 00 	movl   $0xcf9a00,0x10c88c
  100b05:	9a cf 00 
  100b08:	c7 05 90 c8 10 00 ff 	movl   $0xffff,0x10c890
  100b0f:	ff 00 00 
  100b12:	c7 05 94 c8 10 00 00 	movl   $0xcf9200,0x10c894
  100b19:	92 cf 00 
  100b1c:	c7 05 98 c8 10 00 ff 	movl   $0xffff,0x10c898
  100b23:	ff 00 00 
  100b26:	c7 05 9c c8 10 00 00 	movl   $0xcffa00,0x10c89c
  100b2d:	fa cf 00 
  100b30:	c7 05 a0 c8 10 00 ff 	movl   $0xffff,0x10c8a0
  100b37:	ff 00 00 
  100b3a:	c7 05 a4 c8 10 00 00 	movl   $0xcff200,0x10c8a4
  100b41:	f2 cf 00 
  100b44:	e8 e8 00 00 00       	call   100c31 <gdt_flush>
  100b49:	ba ff 07 00 00       	mov    $0x7ff,%edx
  100b4e:	83 c4 10             	add    $0x10,%esp
  100b51:	31 c0                	xor    %eax,%eax
  100b53:	66 89 15 40 c0 10 00 	mov    %dx,0x10c040
  100b5a:	0f b7 0d e2 67 10 00 	movzwl 0x1067e2,%ecx
  100b61:	c7 05 42 c0 10 00 b0 	movl   $0x10c8b0,0x10c042
  100b68:	c8 10 00 
  100b6b:	2e 8d b4 26 00 00 00 	lea    %cs:0x0(%esi,%eiz,1),%esi
  100b72:	00 
  100b73:	2e 8d b4 26 00 00 00 	lea    %cs:0x0(%esi,%eiz,1),%esi
  100b7a:	00 
  100b7b:	2e 8d 74 26 00       	lea    %cs:0x0(%esi,%eiz,1),%esi
  100b80:	8b 14 85 f8 0d 10 00 	mov    0x100df8(,%eax,4),%edx
  100b87:	66 89 0c c5 b4 c8 10 	mov    %cx,0x10c8b4(,%eax,8)
  100b8e:	00 
  100b8f:	66 c7 04 c5 b2 c8 10 	movw   $0x8,0x10c8b2(,%eax,8)
  100b96:	00 08 00 
  100b99:	66 89 14 c5 b0 c8 10 	mov    %dx,0x10c8b0(,%eax,8)
  100ba0:	00 
  100ba1:	c1 ea 10             	shr    $0x10,%edx
  100ba4:	66 89 14 c5 b6 c8 10 	mov    %dx,0x10c8b6(,%eax,8)
  100bab:	00 
  100bac:	83 c0 01             	add    $0x1,%eax
  100baf:	83 f8 20             	cmp    $0x20,%eax
  100bb2:	75 cc                	jne    100b80 <init_descriptor_tables+0xc0>
  100bb4:	8b 14 85 f8 0d 10 00 	mov    0x100df8(,%eax,4),%edx
  100bbb:	66 89 0c c5 b4 c8 10 	mov    %cx,0x10c8b4(,%eax,8)
  100bc2:	00 
  100bc3:	66 c7 04 c5 b2 c8 10 	movw   $0x8,0x10c8b2(,%eax,8)
  100bca:	00 08 00 
  100bcd:	66 89 14 c5 b0 c8 10 	mov    %dx,0x10c8b0(,%eax,8)
  100bd4:	00 
  100bd5:	c1 ea 10             	shr    $0x10,%edx
  100bd8:	66 89 14 c5 b6 c8 10 	mov    %dx,0x10c8b6(,%eax,8)
  100bdf:	00 
  100be0:	83 c0 01             	add    $0x1,%eax
  100be3:	83 f8 23             	cmp    $0x23,%eax
  100be6:	75 cc                	jne    100bb4 <init_descriptor_tables+0xf4>
  100be8:	e4 21                	in     $0x21,%al
  100bea:	e4 a1                	in     $0xa1,%al
  100bec:	b8 11 00 00 00       	mov    $0x11,%eax
  100bf1:	e6 20                	out    %al,$0x20
  100bf3:	e6 a0                	out    %al,$0xa0
  100bf5:	b8 20 00 00 00       	mov    $0x20,%eax
  100bfa:	e6 21                	out    %al,$0x21
  100bfc:	b8 28 00 00 00       	mov    $0x28,%eax
  100c01:	e6 a1                	out    %al,$0xa1
  100c03:	b8 04 00 00 00       	mov    $0x4,%eax
  100c08:	e6 21                	out    %al,$0x21
  100c0a:	b8 02 00 00 00       	mov    $0x2,%eax
  100c0f:	e6 a1                	out    %al,$0xa1
  100c11:	b8 01 00 00 00       	mov    $0x1,%eax
  100c16:	e6 21                	out    %al,$0x21
  100c18:	e6 a1                	out    %al,$0xa1
  100c1a:	b8 f8 ff ff ff       	mov    $0xfffffff8,%eax
  100c1f:	e6 21                	out    %al,$0x21
  100c21:	b8 ff ff ff ff       	mov    $0xffffffff,%eax
  100c26:	e6 a1                	out    %al,$0xa1
  100c28:	0f 01 1d 40 c0 10 00 	lidtl  0x10c040
  100c2f:	c9                   	leave
  100c30:	c3                   	ret

00100c31 <gdt_flush>:
  100c31:	8b 44 24 04          	mov    0x4(%esp),%eax
  100c35:	0f 01 10             	lgdtl  (%eax)
  100c38:	66 b8 10 00          	mov    $0x10,%ax
  100c3c:	8e d8                	mov    %eax,%ds
  100c3e:	8e c0                	mov    %eax,%es
  100c40:	8e e0                	mov    %eax,%fs
  100c42:	8e e8                	mov    %eax,%gs
  100c44:	8e d0                	mov    %eax,%ss
  100c46:	ea 4d 0c 10 00 08 00 	ljmp   $0x8,$0x100c4d

00100c4d <.flush>:
  100c4d:	c3                   	ret

00100c4e <idt_flush>:
  100c4e:	8b 44 24 04          	mov    0x4(%esp),%eax
  100c52:	0f 01 18             	lidtl  (%eax)
  100c55:	c3                   	ret
  100c56:	66 90                	xchg   %ax,%ax
  100c58:	66 90                	xchg   %ax,%ax
  100c5a:	66 90                	xchg   %ax,%ax
  100c5c:	66 90                	xchg   %ax,%ax
  100c5e:	66 90                	xchg   %ax,%ax

00100c60 <isr_common_stub>:
  100c60:	60                   	pusha
  100c61:	31 c0                	xor    %eax,%eax
  100c63:	66 8c d8             	mov    %ds,%ax
  100c66:	50                   	push   %eax
  100c67:	66 b8 10 00          	mov    $0x10,%ax
  100c6b:	8e d8                	mov    %eax,%ds
  100c6d:	8e c0                	mov    %eax,%es
  100c6f:	8e e0                	mov    %eax,%fs
  100c71:	8e e8                	mov    %eax,%gs
  100c73:	89 e3                	mov    %esp,%ebx
  100c75:	83 e4 f0             	and    $0xfffffff0,%esp
  100c78:	83 ec 0c             	sub    $0xc,%esp
  100c7b:	53                   	push   %ebx
  100c7c:	e8 ef 05 00 00       	call   101270 <isr_handler>
  100c81:	83 c4 04             	add    $0x4,%esp
  100c84:	89 dc                	mov    %ebx,%esp
  100c86:	50                   	push   %eax
  100c87:	8b 44 24 04          	mov    0x4(%esp),%eax
  100c8b:	83 f8 10             	cmp    $0x10,%eax
  100c8e:	75 0c                	jne    100c9c <isr_common_stub.stack_corruption>
  100c90:	8b 44 24 34          	mov    0x34(%esp),%eax
  100c94:	83 f8 08             	cmp    $0x8,%eax
  100c97:	75 03                	jne    100c9c <isr_common_stub.stack_corruption>
  100c99:	58                   	pop    %eax
  100c9a:	eb 0f                	jmp    100cab <isr_common_stub.stack_ok>

00100c9c <isr_common_stub.stack_corruption>:
  100c9c:	58                   	pop    %eax
  100c9d:	50                   	push   %eax
  100c9e:	b8 00 80 0b 00       	mov    $0xb8000,%eax
  100ca3:	66 c7 00 58 0c       	movw   $0xc58,(%eax)
  100ca8:	58                   	pop    %eax
  100ca9:	fa                   	cli
  100caa:	f4                   	hlt

00100cab <isr_common_stub.stack_ok>:
  100cab:	58                   	pop    %eax
  100cac:	8e d8                	mov    %eax,%ds
  100cae:	8e c0                	mov    %eax,%es
  100cb0:	8e e0                	mov    %eax,%fs
  100cb2:	8e e8                	mov    %eax,%gs
  100cb4:	61                   	popa
  100cb5:	83 c4 08             	add    $0x8,%esp
  100cb8:	cf                   	iret

00100cb9 <isr0>:
  100cb9:	fa                   	cli
  100cba:	6a 00                	push   $0x0
  100cbc:	6a 00                	push   $0x0
  100cbe:	eb a0                	jmp    100c60 <isr_common_stub>

00100cc0 <isr1>:
  100cc0:	fa                   	cli
  100cc1:	6a 00                	push   $0x0
  100cc3:	6a 01                	push   $0x1
  100cc5:	eb 99                	jmp    100c60 <isr_common_stub>

00100cc7 <isr2>:
  100cc7:	fa                   	cli
  100cc8:	6a 00                	push   $0x0
  100cca:	6a 02                	push   $0x2
  100ccc:	eb 92                	jmp    100c60 <isr_common_stub>

00100cce <isr3>:
  100cce:	fa                   	cli
  100ccf:	6a 00                	push   $0x0
  100cd1:	6a 03                	push   $0x3
  100cd3:	eb 8b                	jmp    100c60 <isr_common_stub>

00100cd5 <isr4>:
  100cd5:	fa                   	cli
  100cd6:	6a 00                	push   $0x0
  100cd8:	6a 04                	push   $0x4
  100cda:	eb 84                	jmp    100c60 <isr_common_stub>

00100cdc <isr5>:
  100cdc:	fa                   	cli
  100cdd:	6a 00                	push   $0x0
  100cdf:	6a 05                	push   $0x5
  100ce1:	e9 7a ff ff ff       	jmp    100c60 <isr_common_stub>

00100ce6 <isr6>:
  100ce6:	fa                   	cli
  100ce7:	6a 00                	push   $0x0
  100ce9:	6a 06                	push   $0x6
  100ceb:	e9 70 ff ff ff       	jmp    100c60 <isr_common_stub>

00100cf0 <isr7>:
  100cf0:	fa                   	cli
  100cf1:	6a 00                	push   $0x0
  100cf3:	6a 07                	push   $0x7
  100cf5:	e9 66 ff ff ff       	jmp    100c60 <isr_common_stub>

00100cfa <isr8>:
  100cfa:	fa                   	cli
  100cfb:	6a 08                	push   $0x8
  100cfd:	e9 5e ff ff ff       	jmp    100c60 <isr_common_stub>

00100d02 <isr9>:
  100d02:	fa                   	cli
  100d03:	6a 00                	push   $0x0
  100d05:	6a 09                	push   $0x9
  100d07:	e9 54 ff ff ff       	jmp    100c60 <isr_common_stub>

00100d0c <isr10>:
  100d0c:	fa                   	cli
  100d0d:	6a 0a                	push   $0xa
  100d0f:	e9 4c ff ff ff       	jmp    100c60 <isr_common_stub>

00100d14 <isr11>:
  100d14:	fa                   	cli
  100d15:	6a 0b                	push   $0xb
  100d17:	e9 44 ff ff ff       	jmp    100c60 <isr_common_stub>

00100d1c <isr12>:
  100d1c:	fa                   	cli
  100d1d:	6a 0c                	push   $0xc
  100d1f:	e9 3c ff ff ff       	jmp    100c60 <isr_common_stub>

00100d24 <isr13>:
  100d24:	fa                   	cli
  100d25:	6a 0d                	push   $0xd
  100d27:	e9 34 ff ff ff       	jmp    100c60 <isr_common_stub>

00100d2c <isr14>:
  100d2c:	fa                   	cli
  100d2d:	6a 0e                	push   $0xe
  100d2f:	e9 2c ff ff ff       	jmp    100c60 <isr_common_stub>

00100d34 <isr15>:
  100d34:	fa                   	cli
  100d35:	6a 00                	push   $0x0
  100d37:	6a 0f                	push   $0xf
  100d39:	e9 22 ff ff ff       	jmp    100c60 <isr_common_stub>

00100d3e <isr16>:
  100d3e:	fa                   	cli
  100d3f:	6a 00                	push   $0x0
  100d41:	6a 10                	push   $0x10
  100d43:	e9 18 ff ff ff       	jmp    100c60 <isr_common_stub>

00100d48 <isr17>:
  100d48:	fa                   	cli
  100d49:	6a 11                	push   $0x11
  100d4b:	e9 10 ff ff ff       	jmp    100c60 <isr_common_stub>

00100d50 <isr18>:
  100d50:	fa                   	cli
  100d51:	6a 00                	push   $0x0
  100d53:	6a 12                	push   $0x12
  100d55:	e9 06 ff ff ff       	jmp    100c60 <isr_common_stub>

00100d5a <isr19>:
  100d5a:	fa                   	cli
  100d5b:	6a 00                	push   $0x0
  100d5d:	6a 13                	push   $0x13
  100d5f:	e9 fc fe ff ff       	jmp    100c60 <isr_common_stub>

00100d64 <isr20>:
  100d64:	fa                   	cli
  100d65:	6a 00                	push   $0x0
  100d67:	6a 14                	push   $0x14
  100d69:	e9 f2 fe ff ff       	jmp    100c60 <isr_common_stub>

00100d6e <isr21>:
  100d6e:	fa                   	cli
  100d6f:	6a 00                	push   $0x0
  100d71:	6a 15                	push   $0x15
  100d73:	e9 e8 fe ff ff       	jmp    100c60 <isr_common_stub>

00100d78 <isr22>:
  100d78:	fa                   	cli
  100d79:	6a 00                	push   $0x0
  100d7b:	6a 16                	push   $0x16
  100d7d:	e9 de fe ff ff       	jmp    100c60 <isr_common_stub>

00100d82 <isr23>:
  100d82:	fa                   	cli
  100d83:	6a 00                	push   $0x0
  100d85:	6a 17                	push   $0x17
  100d87:	e9 d4 fe ff ff       	jmp    100c60 <isr_common_stub>

00100d8c <isr24>:
  100d8c:	fa                   	cli
  100d8d:	6a 00                	push   $0x0
  100d8f:	6a 18                	push   $0x18
  100d91:	e9 ca fe ff ff       	jmp    100c60 <isr_common_stub>

00100d96 <isr25>:
  100d96:	fa                   	cli
  100d97:	6a 00                	push   $0x0
  100d99:	6a 19                	push   $0x19
  100d9b:	e9 c0 fe ff ff       	jmp    100c60 <isr_common_stub>

00100da0 <isr26>:
  100da0:	fa                   	cli
  100da1:	6a 00                	push   $0x0
  100da3:	6a 1a                	push   $0x1a
  100da5:	e9 b6 fe ff ff       	jmp    100c60 <isr_common_stub>

00100daa <isr27>:
  100daa:	fa                   	cli
  100dab:	6a 00                	push   $0x0
  100dad:	6a 1b                	push   $0x1b
  100daf:	e9 ac fe ff ff       	jmp    100c60 <isr_common_stub>

00100db4 <isr28>:
  100db4:	fa                   	cli
  100db5:	6a 00                	push   $0x0
  100db7:	6a 1c                	push   $0x1c
  100db9:	e9 a2 fe ff ff       	jmp    100c60 <isr_common_stub>

00100dbe <isr29>:
  100dbe:	fa                   	cli
  100dbf:	6a 00                	push   $0x0
  100dc1:	6a 1d                	push   $0x1d
  100dc3:	e9 98 fe ff ff       	jmp    100c60 <isr_common_stub>

00100dc8 <isr30>:
  100dc8:	fa                   	cli
  100dc9:	6a 1e                	push   $0x1e
  100dcb:	e9 90 fe ff ff       	jmp    100c60 <isr_common_stub>

00100dd0 <isr31>:
  100dd0:	fa                   	cli
  100dd1:	6a 00                	push   $0x0
  100dd3:	6a 1f                	push   $0x1f
  100dd5:	e9 86 fe ff ff       	jmp    100c60 <isr_common_stub>

00100dda <isr32>:
  100dda:	fa                   	cli
  100ddb:	6a 00                	push   $0x0
  100ddd:	6a 20                	push   $0x20
  100ddf:	e9 7c fe ff ff       	jmp    100c60 <isr_common_stub>

00100de4 <isr33>:
  100de4:	fa                   	cli
  100de5:	6a 00                	push   $0x0
  100de7:	6a 21                	push   $0x21
  100de9:	e9 72 fe ff ff       	jmp    100c60 <isr_common_stub>

00100dee <isr34>:
  100dee:	fa                   	cli
  100def:	6a 00                	push   $0x0
  100df1:	6a 22                	push   $0x22
  100df3:	e9 68 fe ff ff       	jmp    100c60 <isr_common_stub>

00100df8 <isr_stub_table>:
  100df8:	b9 0c 10 00 c0       	mov    $0xc000100c,%ecx
  100dfd:	0c 10                	or     $0x10,%al
  100dff:	00 c7                	add    %al,%bh
  100e01:	0c 10                	or     $0x10,%al
  100e03:	00 ce                	add    %cl,%dh
  100e05:	0c 10                	or     $0x10,%al
  100e07:	00 d5                	add    %dl,%ch
  100e09:	0c 10                	or     $0x10,%al
  100e0b:	00 dc                	add    %bl,%ah
  100e0d:	0c 10                	or     $0x10,%al
  100e0f:	00 e6                	add    %ah,%dh
  100e11:	0c 10                	or     $0x10,%al
  100e13:	00 f0                	add    %dh,%al
  100e15:	0c 10                	or     $0x10,%al
  100e17:	00 fa                	add    %bh,%dl
  100e19:	0c 10                	or     $0x10,%al
  100e1b:	00 02                	add    %al,(%edx)
  100e1d:	0d 10 00 0c 0d       	or     $0xd0c0010,%eax
  100e22:	10 00                	adc    %al,(%eax)
  100e24:	14 0d                	adc    $0xd,%al
  100e26:	10 00                	adc    %al,(%eax)
  100e28:	1c 0d                	sbb    $0xd,%al
  100e2a:	10 00                	adc    %al,(%eax)
  100e2c:	24 0d                	and    $0xd,%al
  100e2e:	10 00                	adc    %al,(%eax)
  100e30:	2c 0d                	sub    $0xd,%al
  100e32:	10 00                	adc    %al,(%eax)
  100e34:	34 0d                	xor    $0xd,%al
  100e36:	10 00                	adc    %al,(%eax)
  100e38:	3e 0d 10 00 48 0d    	ds or  $0xd480010,%eax
  100e3e:	10 00                	adc    %al,(%eax)
  100e40:	50                   	push   %eax
  100e41:	0d 10 00 5a 0d       	or     $0xd5a0010,%eax
  100e46:	10 00                	adc    %al,(%eax)
  100e48:	64 0d 10 00 6e 0d    	fs or  $0xd6e0010,%eax
  100e4e:	10 00                	adc    %al,(%eax)
  100e50:	78 0d                	js     100e5f <isr_stub_table+0x67>
  100e52:	10 00                	adc    %al,(%eax)
  100e54:	82 0d 10 00 8c 0d 10 	orb    $0x10,0xd8c0010
  100e5b:	00 96 0d 10 00 a0    	add    %dl,-0x5fffeff3(%esi)
  100e61:	0d 10 00 aa 0d       	or     $0xdaa0010,%eax
  100e66:	10 00                	adc    %al,(%eax)
  100e68:	b4 0d                	mov    $0xd,%ah
  100e6a:	10 00                	adc    %al,(%eax)
  100e6c:	be 0d 10 00 c8       	mov    $0xc800100d,%esi
  100e71:	0d 10 00 d0 0d       	or     $0xdd00010,%eax
  100e76:	10 00                	adc    %al,(%eax)
  100e78:	da 0d 10 00 e4 0d    	fimull 0xde40010
  100e7e:	10 00                	adc    %al,(%eax)

00100e80 <has_err_code>:
  100e80:	55                   	push   %ebp
  100e81:	89 e5                	mov    %esp,%ebp
  100e83:	8b 55 08             	mov    0x8(%ebp),%edx
  100e86:	5d                   	pop    %ebp
  100e87:	8d 42 f6             	lea    -0xa(%edx),%eax
  100e8a:	83 f8 04             	cmp    $0x4,%eax
  100e8d:	0f 96 c0             	setbe  %al
  100e90:	83 fa 08             	cmp    $0x8,%edx
  100e93:	0f 94 c2             	sete   %dl
  100e96:	09 d0                	or     %edx,%eax
  100e98:	0f b6 c0             	movzbl %al,%eax
  100e9b:	c3                   	ret
  100e9c:	8d 74 26 00          	lea    0x0(%esi,%eiz,1),%esi

00100ea0 <debug_print_registers>:
  100ea0:	55                   	push   %ebp
  100ea1:	89 e5                	mov    %esp,%ebp
  100ea3:	57                   	push   %edi
  100ea4:	56                   	push   %esi
  100ea5:	53                   	push   %ebx
  100ea6:	83 ec 18             	sub    $0x18,%esp
  100ea9:	8b 75 2c             	mov    0x2c(%ebp),%esi
  100eac:	8b 5d 3c             	mov    0x3c(%ebp),%ebx
  100eaf:	8b 7d 30             	mov    0x30(%ebp),%edi
  100eb2:	68 30 61 10 00       	push   $0x106130
  100eb7:	e8 74 3c 00 00       	call   104b30 <printf>
  100ebc:	58                   	pop    %eax
  100ebd:	5a                   	pop    %edx
  100ebe:	ff 75 08             	push   0x8(%ebp)
  100ec1:	68 47 61 10 00       	push   $0x106147
  100ec6:	e8 65 3c 00 00       	call   104b30 <printf>
  100ecb:	59                   	pop    %ecx
  100ecc:	58                   	pop    %eax
  100ecd:	ff 75 38             	push   0x38(%ebp)
  100ed0:	68 51 61 10 00       	push   $0x106151
  100ed5:	e8 56 3c 00 00       	call   104b30 <printf>
  100eda:	58                   	pop    %eax
  100edb:	5a                   	pop    %edx
  100edc:	ff 75 44             	push   0x44(%ebp)
  100edf:	68 5b 61 10 00       	push   $0x10615b
  100ee4:	e8 47 3c 00 00       	call   104b30 <printf>
  100ee9:	59                   	pop    %ecx
  100eea:	ff 75 20             	push   0x20(%ebp)
  100eed:	ff 75 24             	push   0x24(%ebp)
  100ef0:	ff 75 1c             	push   0x1c(%ebp)
  100ef3:	ff 75 28             	push   0x28(%ebp)
  100ef6:	68 70 51 10 00       	push   $0x105170
  100efb:	e8 30 3c 00 00       	call   104b30 <printf>
  100f00:	83 c4 14             	add    $0x14,%esp
  100f03:	ff 75 18             	push   0x18(%ebp)
  100f06:	ff 75 14             	push   0x14(%ebp)
  100f09:	ff 75 0c             	push   0xc(%ebp)
  100f0c:	ff 75 10             	push   0x10(%ebp)
  100f0f:	68 9c 51 10 00       	push   $0x10519c
  100f14:	e8 17 3c 00 00       	call   104b30 <printf>
  100f19:	83 c4 1c             	add    $0x1c,%esp
  100f1c:	53                   	push   %ebx
  100f1d:	ff 75 34             	push   0x34(%ebp)
  100f20:	68 65 61 10 00       	push   $0x106165
  100f25:	e8 06 3c 00 00       	call   104b30 <printf>
  100f2a:	58                   	pop    %eax
  100f2b:	5a                   	pop    %edx
  100f2c:	ff 75 40             	push   0x40(%ebp)
  100f2f:	68 7e 61 10 00       	push   $0x10617e
  100f34:	e8 f7 3b 00 00       	call   104b30 <printf>
  100f39:	83 c4 0c             	add    $0xc,%esp
  100f3c:	56                   	push   %esi
  100f3d:	56                   	push   %esi
  100f3e:	68 8e 61 10 00       	push   $0x10618e
  100f43:	e8 e8 3b 00 00       	call   104b30 <printf>
  100f48:	8d 46 f6             	lea    -0xa(%esi),%eax
  100f4b:	83 c4 10             	add    $0x10,%esp
  100f4e:	83 f8 04             	cmp    $0x4,%eax
  100f51:	0f 86 91 00 00 00    	jbe    100fe8 <debug_print_registers+0x148>
  100f57:	83 fe 08             	cmp    $0x8,%esi
  100f5a:	0f 84 88 00 00 00    	je     100fe8 <debug_print_registers+0x148>
  100f60:	83 ec 0c             	sub    $0xc,%esp
  100f63:	68 30 65 10 00       	push   $0x106530
  100f68:	e8 c3 3b 00 00       	call   104b30 <printf>
  100f6d:	c7 04 24 bb 61 10 00 	movl   $0x1061bb,(%esp)
  100f74:	e8 b7 3b 00 00       	call   104b30 <printf>
  100f79:	83 c4 10             	add    $0x10,%esp
  100f7c:	f6 c3 01             	test   $0x1,%bl
  100f7f:	0f 85 3b 01 00 00    	jne    1010c0 <debug_print_registers+0x220>
  100f85:	f6 c3 04             	test   $0x4,%bl
  100f88:	0f 85 1a 01 00 00    	jne    1010a8 <debug_print_registers+0x208>
  100f8e:	f6 c3 10             	test   $0x10,%bl
  100f91:	0f 85 f9 00 00 00    	jne    101090 <debug_print_registers+0x1f0>
  100f97:	f6 c3 40             	test   $0x40,%bl
  100f9a:	0f 85 d8 00 00 00    	jne    101078 <debug_print_registers+0x1d8>
  100fa0:	f6 c3 80             	test   $0x80,%bl
  100fa3:	0f 85 b7 00 00 00    	jne    101060 <debug_print_registers+0x1c0>
  100fa9:	f6 c7 01             	test   $0x1,%bh
  100fac:	0f 85 96 00 00 00    	jne    101048 <debug_print_registers+0x1a8>
  100fb2:	f6 c7 02             	test   $0x2,%bh
  100fb5:	75 79                	jne    101030 <debug_print_registers+0x190>
  100fb7:	f6 c7 04             	test   $0x4,%bh
  100fba:	75 5c                	jne    101018 <debug_print_registers+0x178>
  100fbc:	80 e7 08             	and    $0x8,%bh
  100fbf:	75 3f                	jne    101000 <debug_print_registers+0x160>
  100fc1:	83 ec 0c             	sub    $0xc,%esp
  100fc4:	68 30 65 10 00       	push   $0x106530
  100fc9:	e8 62 3b 00 00       	call   104b30 <printf>
  100fce:	83 c4 10             	add    $0x10,%esp
  100fd1:	c7 45 08 ed 61 10 00 	movl   $0x1061ed,0x8(%ebp)
  100fd8:	8d 65 f4             	lea    -0xc(%ebp),%esp
  100fdb:	5b                   	pop    %ebx
  100fdc:	5e                   	pop    %esi
  100fdd:	5f                   	pop    %edi
  100fde:	5d                   	pop    %ebp
  100fdf:	e9 4c 3b 00 00       	jmp    104b30 <printf>
  100fe4:	8d 74 26 00          	lea    0x0(%esi,%eiz,1),%esi
  100fe8:	83 ec 04             	sub    $0x4,%esp
  100feb:	57                   	push   %edi
  100fec:	57                   	push   %edi
  100fed:	68 a3 61 10 00       	push   $0x1061a3
  100ff2:	e8 39 3b 00 00       	call   104b30 <printf>
  100ff7:	83 c4 10             	add    $0x10,%esp
  100ffa:	e9 61 ff ff ff       	jmp    100f60 <debug_print_registers+0xc0>
  100fff:	90                   	nop
  101000:	83 ec 0c             	sub    $0xc,%esp
  101003:	68 e9 61 10 00       	push   $0x1061e9
  101008:	e8 23 3b 00 00       	call   104b30 <printf>
  10100d:	83 c4 10             	add    $0x10,%esp
  101010:	eb af                	jmp    100fc1 <debug_print_registers+0x121>
  101012:	8d b6 00 00 00 00    	lea    0x0(%esi),%esi
  101018:	83 ec 0c             	sub    $0xc,%esp
  10101b:	68 e5 61 10 00       	push   $0x1061e5
  101020:	e8 0b 3b 00 00       	call   104b30 <printf>
  101025:	83 c4 10             	add    $0x10,%esp
  101028:	eb 92                	jmp    100fbc <debug_print_registers+0x11c>
  10102a:	8d b6 00 00 00 00    	lea    0x0(%esi),%esi
  101030:	83 ec 0c             	sub    $0xc,%esp
  101033:	68 e1 61 10 00       	push   $0x1061e1
  101038:	e8 f3 3a 00 00       	call   104b30 <printf>
  10103d:	83 c4 10             	add    $0x10,%esp
  101040:	e9 72 ff ff ff       	jmp    100fb7 <debug_print_registers+0x117>
  101045:	8d 76 00             	lea    0x0(%esi),%esi
  101048:	83 ec 0c             	sub    $0xc,%esp
  10104b:	68 dd 61 10 00       	push   $0x1061dd
  101050:	e8 db 3a 00 00       	call   104b30 <printf>
  101055:	83 c4 10             	add    $0x10,%esp
  101058:	e9 55 ff ff ff       	jmp    100fb2 <debug_print_registers+0x112>
  10105d:	8d 76 00             	lea    0x0(%esi),%esi
  101060:	83 ec 0c             	sub    $0xc,%esp
  101063:	68 d9 61 10 00       	push   $0x1061d9
  101068:	e8 c3 3a 00 00       	call   104b30 <printf>
  10106d:	83 c4 10             	add    $0x10,%esp
  101070:	e9 34 ff ff ff       	jmp    100fa9 <debug_print_registers+0x109>
  101075:	8d 76 00             	lea    0x0(%esi),%esi
  101078:	83 ec 0c             	sub    $0xc,%esp
  10107b:	68 d5 61 10 00       	push   $0x1061d5
  101080:	e8 ab 3a 00 00       	call   104b30 <printf>
  101085:	83 c4 10             	add    $0x10,%esp
  101088:	e9 13 ff ff ff       	jmp    100fa0 <debug_print_registers+0x100>
  10108d:	8d 76 00             	lea    0x0(%esi),%esi
  101090:	83 ec 0c             	sub    $0xc,%esp
  101093:	68 d1 61 10 00       	push   $0x1061d1
  101098:	e8 93 3a 00 00       	call   104b30 <printf>
  10109d:	83 c4 10             	add    $0x10,%esp
  1010a0:	e9 f2 fe ff ff       	jmp    100f97 <debug_print_registers+0xf7>
  1010a5:	8d 76 00             	lea    0x0(%esi),%esi
  1010a8:	83 ec 0c             	sub    $0xc,%esp
  1010ab:	68 cd 61 10 00       	push   $0x1061cd
  1010b0:	e8 7b 3a 00 00       	call   104b30 <printf>
  1010b5:	83 c4 10             	add    $0x10,%esp
  1010b8:	e9 d1 fe ff ff       	jmp    100f8e <debug_print_registers+0xee>
  1010bd:	8d 76 00             	lea    0x0(%esi),%esi
  1010c0:	83 ec 0c             	sub    $0xc,%esp
  1010c3:	68 c9 61 10 00       	push   $0x1061c9
  1010c8:	e8 63 3a 00 00       	call   104b30 <printf>
  1010cd:	83 c4 10             	add    $0x10,%esp
  1010d0:	e9 b0 fe ff ff       	jmp    100f85 <debug_print_registers+0xe5>
  1010d5:	2e 8d b4 26 00 00 00 	lea    %cs:0x0(%esi,%eiz,1),%esi
  1010dc:	00 
  1010dd:	8d 76 00             	lea    0x0(%esi),%esi

001010e0 <vga_putchar>:
  1010e0:	55                   	push   %ebp
  1010e1:	8b 0d c0 d0 10 00    	mov    0x10d0c0,%ecx
  1010e7:	89 e5                	mov    %esp,%ebp
  1010e9:	8b 45 08             	mov    0x8(%ebp),%eax
  1010ec:	3c 0a                	cmp    $0xa,%al
  1010ee:	74 30                	je     101120 <vga_putchar+0x40>
  1010f0:	66 98                	cbtw
  1010f2:	8d 51 01             	lea    0x1(%ecx),%edx
  1010f5:	01 c9                	add    %ecx,%ecx
  1010f7:	03 0d 04 70 10 00    	add    0x107004,%ecx
  1010fd:	80 cc 0f             	or     $0xf,%ah
  101100:	89 15 c0 d0 10 00    	mov    %edx,0x10d0c0
  101106:	66 89 01             	mov    %ax,(%ecx)
  101109:	81 fa cf 07 00 00    	cmp    $0x7cf,%edx
  10110f:	7e 0a                	jle    10111b <vga_putchar+0x3b>
  101111:	c7 05 c0 d0 10 00 00 	movl   $0x0,0x10d0c0
  101118:	00 00 00 
  10111b:	5d                   	pop    %ebp
  10111c:	c3                   	ret
  10111d:	8d 76 00             	lea    0x0(%esi),%esi
  101120:	b8 67 66 66 66       	mov    $0x66666667,%eax
  101125:	f7 e9                	imul   %ecx
  101127:	c1 f9 1f             	sar    $0x1f,%ecx
  10112a:	c1 fa 05             	sar    $0x5,%edx
  10112d:	29 ca                	sub    %ecx,%edx
  10112f:	8d 54 92 05          	lea    0x5(%edx,%edx,4),%edx
  101133:	c1 e2 04             	shl    $0x4,%edx
  101136:	89 15 c0 d0 10 00    	mov    %edx,0x10d0c0
  10113c:	eb cb                	jmp    101109 <vga_putchar+0x29>
  10113e:	66 90                	xchg   %ax,%ax

00101140 <vga_print>:
  101140:	55                   	push   %ebp
  101141:	89 e5                	mov    %esp,%ebp
  101143:	57                   	push   %edi
  101144:	56                   	push   %esi
  101145:	8b 35 04 70 10 00    	mov    0x107004,%esi
  10114b:	53                   	push   %ebx
  10114c:	8b 5d 08             	mov    0x8(%ebp),%ebx
  10114f:	66 0f be 03          	movsbw (%ebx),%ax
  101153:	84 c0                	test   %al,%al
  101155:	74 61                	je     1011b8 <vga_print+0x78>
  101157:	bf 67 66 66 66       	mov    $0x66666667,%edi
  10115c:	eb 2e                	jmp    10118c <vga_print+0x4c>
  10115e:	66 90                	xchg   %ax,%ax
  101160:	8d 51 01             	lea    0x1(%ecx),%edx
  101163:	80 cc 0f             	or     $0xf,%ah
  101166:	8d 0c 4e             	lea    (%esi,%ecx,2),%ecx
  101169:	89 15 c0 d0 10 00    	mov    %edx,0x10d0c0
  10116f:	66 89 01             	mov    %ax,(%ecx)
  101172:	81 fa cf 07 00 00    	cmp    $0x7cf,%edx
  101178:	7e 0a                	jle    101184 <vga_print+0x44>
  10117a:	c7 05 c0 d0 10 00 00 	movl   $0x0,0x10d0c0
  101181:	00 00 00 
  101184:	66 0f be 03          	movsbw (%ebx),%ax
  101188:	84 c0                	test   %al,%al
  10118a:	74 2c                	je     1011b8 <vga_print+0x78>
  10118c:	8b 0d c0 d0 10 00    	mov    0x10d0c0,%ecx
  101192:	83 c3 01             	add    $0x1,%ebx
  101195:	3c 0a                	cmp    $0xa,%al
  101197:	75 c7                	jne    101160 <vga_print+0x20>
  101199:	89 c8                	mov    %ecx,%eax
  10119b:	c1 f9 1f             	sar    $0x1f,%ecx
  10119e:	f7 ef                	imul   %edi
  1011a0:	c1 fa 05             	sar    $0x5,%edx
  1011a3:	29 ca                	sub    %ecx,%edx
  1011a5:	8d 54 92 05          	lea    0x5(%edx,%edx,4),%edx
  1011a9:	c1 e2 04             	shl    $0x4,%edx
  1011ac:	89 15 c0 d0 10 00    	mov    %edx,0x10d0c0
  1011b2:	eb be                	jmp    101172 <vga_print+0x32>
  1011b4:	8d 74 26 00          	lea    0x0(%esi,%eiz,1),%esi
  1011b8:	5b                   	pop    %ebx
  1011b9:	5e                   	pop    %esi
  1011ba:	5f                   	pop    %edi
  1011bb:	5d                   	pop    %ebp
  1011bc:	c3                   	ret
  1011bd:	8d 76 00             	lea    0x0(%esi),%esi

001011c0 <vga_print_hex>:
  1011c0:	55                   	push   %ebp
  1011c1:	89 e5                	mov    %esp,%ebp
  1011c3:	56                   	push   %esi
  1011c4:	53                   	push   %ebx
  1011c5:	bb 1c 00 00 00       	mov    $0x1c,%ebx
  1011ca:	83 ec 2c             	sub    $0x2c,%esp
  1011cd:	c7 45 e3 30 31 32 33 	movl   $0x33323130,-0x1d(%ebp)
  1011d4:	8b 35 08 70 10 00    	mov    0x107008,%esi
  1011da:	89 75 f4             	mov    %esi,-0xc(%ebp)
  1011dd:	8b 75 08             	mov    0x8(%ebp),%esi
  1011e0:	c7 45 e7 34 35 36 37 	movl   $0x37363534,-0x19(%ebp)
  1011e7:	c7 45 eb 38 39 41 42 	movl   $0x42413938,-0x15(%ebp)
  1011ee:	c7 45 ef 43 44 45 46 	movl   $0x46454443,-0x11(%ebp)
  1011f5:	c6 45 f3 00          	movb   $0x0,-0xd(%ebp)
  1011f9:	6a 30                	push   $0x30
  1011fb:	e8 e0 fe ff ff       	call   1010e0 <vga_putchar>
  101200:	c7 04 24 78 00 00 00 	movl   $0x78,(%esp)
  101207:	e8 d4 fe ff ff       	call   1010e0 <vga_putchar>
  10120c:	83 c4 10             	add    $0x10,%esp
  10120f:	90                   	nop
  101210:	89 d9                	mov    %ebx,%ecx
  101212:	89 f0                	mov    %esi,%eax
  101214:	83 ec 0c             	sub    $0xc,%esp
  101217:	83 eb 04             	sub    $0x4,%ebx
  10121a:	d3 e8                	shr    %cl,%eax
  10121c:	83 e0 0f             	and    $0xf,%eax
  10121f:	0f be 44 05 e3       	movsbl -0x1d(%ebp,%eax,1),%eax
  101224:	50                   	push   %eax
  101225:	e8 b6 fe ff ff       	call   1010e0 <vga_putchar>
  10122a:	83 c4 10             	add    $0x10,%esp
  10122d:	83 fb fc             	cmp    $0xfffffffc,%ebx
  101230:	75 de                	jne    101210 <vga_print_hex+0x50>
  101232:	8b 45 f4             	mov    -0xc(%ebp),%eax
  101235:	2b 05 08 70 10 00    	sub    0x107008,%eax
  10123b:	75 07                	jne    101244 <vga_print_hex+0x84>
  10123d:	8d 65 f8             	lea    -0x8(%ebp),%esp
  101240:	5b                   	pop    %ebx
  101241:	5e                   	pop    %esi
  101242:	5d                   	pop    %ebp
  101243:	c3                   	ret
  101244:	e8 77 02 00 00       	call   1014c0 <__stack_chk_fail>
  101249:	8d b4 26 00 00 00 00 	lea    0x0(%esi,%eiz,1),%esi

00101250 <register_interrupt_handler>:
  101250:	55                   	push   %ebp
  101251:	89 e5                	mov    %esp,%ebp
  101253:	0f b6 45 08          	movzbl 0x8(%ebp),%eax
  101257:	8b 55 0c             	mov    0xc(%ebp),%edx
  10125a:	89 14 85 e0 d0 10 00 	mov    %edx,0x10d0e0(,%eax,4)
  101261:	5d                   	pop    %ebp
  101262:	c3                   	ret
  101263:	2e 8d b4 26 00 00 00 	lea    %cs:0x0(%esi,%eiz,1),%esi
  10126a:	00 
  10126b:	2e 8d 74 26 00       	lea    %cs:0x0(%esi,%eiz,1),%esi

00101270 <isr_handler>:
  101270:	55                   	push   %ebp
  101271:	89 e5                	mov    %esp,%ebp
  101273:	83 ec 08             	sub    $0x8,%esp
  101276:	8b 55 08             	mov    0x8(%ebp),%edx
  101279:	8b 4a 24             	mov    0x24(%edx),%ecx
  10127c:	8b 04 8d e0 d0 10 00 	mov    0x10d0e0(,%ecx,4),%eax
  101283:	85 c0                	test   %eax,%eax
  101285:	74 09                	je     101290 <isr_handler+0x20>
  101287:	89 55 08             	mov    %edx,0x8(%ebp)
  10128a:	c9                   	leave
  10128b:	ff e0                	jmp    *%eax
  10128d:	8d 76 00             	lea    0x0(%esi),%esi
  101290:	83 ec 08             	sub    $0x8,%esp
  101293:	51                   	push   %ecx
  101294:	68 01 62 10 00       	push   $0x106201
  101299:	e8 92 38 00 00       	call   104b30 <printf>
  10129e:	83 c4 10             	add    $0x10,%esp
  1012a1:	c9                   	leave
  1012a2:	c3                   	ret
  1012a3:	2e 8d b4 26 00 00 00 	lea    %cs:0x0(%esi,%eiz,1),%esi
  1012aa:	00 
  1012ab:	2e 8d 74 26 00       	lea    %cs:0x0(%esi,%eiz,1),%esi

001012b0 <isr_0>:
  1012b0:	c3                   	ret
  1012b1:	2e 8d b4 26 00 00 00 	lea    %cs:0x0(%esi,%eiz,1),%esi
  1012b8:	00 
  1012b9:	8d b4 26 00 00 00 00 	lea    0x0(%esi,%eiz,1),%esi

001012c0 <isr_1>:
  1012c0:	c3                   	ret
  1012c1:	2e 8d b4 26 00 00 00 	lea    %cs:0x0(%esi,%eiz,1),%esi
  1012c8:	00 
  1012c9:	8d b4 26 00 00 00 00 	lea    0x0(%esi,%eiz,1),%esi

001012d0 <isr_2>:
  1012d0:	c3                   	ret
  1012d1:	2e 8d b4 26 00 00 00 	lea    %cs:0x0(%esi,%eiz,1),%esi
  1012d8:	00 
  1012d9:	8d b4 26 00 00 00 00 	lea    0x0(%esi,%eiz,1),%esi

001012e0 <isr_3>:
  1012e0:	c3                   	ret
  1012e1:	2e 8d b4 26 00 00 00 	lea    %cs:0x0(%esi,%eiz,1),%esi
  1012e8:	00 
  1012e9:	8d b4 26 00 00 00 00 	lea    0x0(%esi,%eiz,1),%esi

001012f0 <isr_4>:
  1012f0:	c3                   	ret
  1012f1:	2e 8d b4 26 00 00 00 	lea    %cs:0x0(%esi,%eiz,1),%esi
  1012f8:	00 
  1012f9:	8d b4 26 00 00 00 00 	lea    0x0(%esi,%eiz,1),%esi

00101300 <isr_5>:
  101300:	c3                   	ret
  101301:	2e 8d b4 26 00 00 00 	lea    %cs:0x0(%esi,%eiz,1),%esi
  101308:	00 
  101309:	8d b4 26 00 00 00 00 	lea    0x0(%esi,%eiz,1),%esi

00101310 <isr_6>:
  101310:	c3                   	ret
  101311:	2e 8d b4 26 00 00 00 	lea    %cs:0x0(%esi,%eiz,1),%esi
  101318:	00 
  101319:	8d b4 26 00 00 00 00 	lea    0x0(%esi,%eiz,1),%esi

00101320 <isr_7>:
  101320:	c3                   	ret
  101321:	2e 8d b4 26 00 00 00 	lea    %cs:0x0(%esi,%eiz,1),%esi
  101328:	00 
  101329:	8d b4 26 00 00 00 00 	lea    0x0(%esi,%eiz,1),%esi

00101330 <isr_8>:
  101330:	c3                   	ret
  101331:	2e 8d b4 26 00 00 00 	lea    %cs:0x0(%esi,%eiz,1),%esi
  101338:	00 
  101339:	8d b4 26 00 00 00 00 	lea    0x0(%esi,%eiz,1),%esi

00101340 <isr_9>:
  101340:	c3                   	ret
  101341:	2e 8d b4 26 00 00 00 	lea    %cs:0x0(%esi,%eiz,1),%esi
  101348:	00 
  101349:	8d b4 26 00 00 00 00 	lea    0x0(%esi,%eiz,1),%esi

00101350 <isr_10>:
  101350:	c3                   	ret
  101351:	2e 8d b4 26 00 00 00 	lea    %cs:0x0(%esi,%eiz,1),%esi
  101358:	00 
  101359:	8d b4 26 00 00 00 00 	lea    0x0(%esi,%eiz,1),%esi

00101360 <isr_11>:
  101360:	c3                   	ret
  101361:	2e 8d b4 26 00 00 00 	lea    %cs:0x0(%esi,%eiz,1),%esi
  101368:	00 
  101369:	8d b4 26 00 00 00 00 	lea    0x0(%esi,%eiz,1),%esi

00101370 <isr_12>:
  101370:	c3                   	ret
  101371:	2e 8d b4 26 00 00 00 	lea    %cs:0x0(%esi,%eiz,1),%esi
  101378:	00 
  101379:	8d b4 26 00 00 00 00 	lea    0x0(%esi,%eiz,1),%esi

00101380 <isr_13>:
  101380:	c3                   	ret
  101381:	2e 8d b4 26 00 00 00 	lea    %cs:0x0(%esi,%eiz,1),%esi
  101388:	00 
  101389:	8d b4 26 00 00 00 00 	lea    0x0(%esi,%eiz,1),%esi

00101390 <isr_14>:
  101390:	c3                   	ret
  101391:	2e 8d b4 26 00 00 00 	lea    %cs:0x0(%esi,%eiz,1),%esi
  101398:	00 
  101399:	8d b4 26 00 00 00 00 	lea    0x0(%esi,%eiz,1),%esi

001013a0 <isr_15>:
  1013a0:	c3                   	ret
  1013a1:	2e 8d b4 26 00 00 00 	lea    %cs:0x0(%esi,%eiz,1),%esi
  1013a8:	00 
  1013a9:	8d b4 26 00 00 00 00 	lea    0x0(%esi,%eiz,1),%esi

001013b0 <isr_16>:
  1013b0:	c3                   	ret
  1013b1:	2e 8d b4 26 00 00 00 	lea    %cs:0x0(%esi,%eiz,1),%esi
  1013b8:	00 
  1013b9:	8d b4 26 00 00 00 00 	lea    0x0(%esi,%eiz,1),%esi

001013c0 <isr_17>:
  1013c0:	c3                   	ret
  1013c1:	2e 8d b4 26 00 00 00 	lea    %cs:0x0(%esi,%eiz,1),%esi
  1013c8:	00 
  1013c9:	8d b4 26 00 00 00 00 	lea    0x0(%esi,%eiz,1),%esi

001013d0 <isr_18>:
  1013d0:	c3                   	ret
  1013d1:	2e 8d b4 26 00 00 00 	lea    %cs:0x0(%esi,%eiz,1),%esi
  1013d8:	00 
  1013d9:	8d b4 26 00 00 00 00 	lea    0x0(%esi,%eiz,1),%esi

001013e0 <isr_19>:
  1013e0:	c3                   	ret
  1013e1:	2e 8d b4 26 00 00 00 	lea    %cs:0x0(%esi,%eiz,1),%esi
  1013e8:	00 
  1013e9:	8d b4 26 00 00 00 00 	lea    0x0(%esi,%eiz,1),%esi

001013f0 <isr_20>:
  1013f0:	c3                   	ret
  1013f1:	2e 8d b4 26 00 00 00 	lea    %cs:0x0(%esi,%eiz,1),%esi
  1013f8:	00 
  1013f9:	8d b4 26 00 00 00 00 	lea    0x0(%esi,%eiz,1),%esi

00101400 <isr_21>:
  101400:	c3                   	ret
  101401:	2e 8d b4 26 00 00 00 	lea    %cs:0x0(%esi,%eiz,1),%esi
  101408:	00 
  101409:	8d b4 26 00 00 00 00 	lea    0x0(%esi,%eiz,1),%esi

00101410 <isr_22>:
  101410:	c3                   	ret
  101411:	2e 8d b4 26 00 00 00 	lea    %cs:0x0(%esi,%eiz,1),%esi
  101418:	00 
  101419:	8d b4 26 00 00 00 00 	lea    0x0(%esi,%eiz,1),%esi

00101420 <isr_23>:
  101420:	c3                   	ret
  101421:	2e 8d b4 26 00 00 00 	lea    %cs:0x0(%esi,%eiz,1),%esi
  101428:	00 
  101429:	8d b4 26 00 00 00 00 	lea    0x0(%esi,%eiz,1),%esi

00101430 <isr_24>:
  101430:	c3                   	ret
  101431:	2e 8d b4 26 00 00 00 	lea    %cs:0x0(%esi,%eiz,1),%esi
  101438:	00 
  101439:	8d b4 26 00 00 00 00 	lea    0x0(%esi,%eiz,1),%esi

00101440 <isr_25>:
  101440:	c3                   	ret
  101441:	2e 8d b4 26 00 00 00 	lea    %cs:0x0(%esi,%eiz,1),%esi
  101448:	00 
  101449:	8d b4 26 00 00 00 00 	lea    0x0(%esi,%eiz,1),%esi

00101450 <isr_26>:
  101450:	c3                   	ret
  101451:	2e 8d b4 26 00 00 00 	lea    %cs:0x0(%esi,%eiz,1),%esi
  101458:	00 
  101459:	8d b4 26 00 00 00 00 	lea    0x0(%esi,%eiz,1),%esi

00101460 <isr_27>:
  101460:	c3                   	ret
  101461:	2e 8d b4 26 00 00 00 	lea    %cs:0x0(%esi,%eiz,1),%esi
  101468:	00 
  101469:	8d b4 26 00 00 00 00 	lea    0x0(%esi,%eiz,1),%esi

00101470 <isr_28>:
  101470:	c3                   	ret
  101471:	2e 8d b4 26 00 00 00 	lea    %cs:0x0(%esi,%eiz,1),%esi
  101478:	00 
  101479:	8d b4 26 00 00 00 00 	lea    0x0(%esi,%eiz,1),%esi

00101480 <isr_29>:
  101480:	c3                   	ret
  101481:	2e 8d b4 26 00 00 00 	lea    %cs:0x0(%esi,%eiz,1),%esi
  101488:	00 
  101489:	8d b4 26 00 00 00 00 	lea    0x0(%esi,%eiz,1),%esi

00101490 <isr_30>:
  101490:	c3                   	ret
  101491:	2e 8d b4 26 00 00 00 	lea    %cs:0x0(%esi,%eiz,1),%esi
  101498:	00 
  101499:	8d b4 26 00 00 00 00 	lea    0x0(%esi,%eiz,1),%esi

001014a0 <isr_31>:
  1014a0:	c3                   	ret
  1014a1:	66 90                	xchg   %ax,%ax
  1014a3:	66 90                	xchg   %ax,%ax
  1014a5:	66 90                	xchg   %ax,%ax
  1014a7:	66 90                	xchg   %ax,%ax
  1014a9:	66 90                	xchg   %ax,%ax
  1014ab:	66 90                	xchg   %ax,%ax
  1014ad:	66 90                	xchg   %ax,%ax
  1014af:	66 90                	xchg   %ax,%ax
  1014b1:	66 90                	xchg   %ax,%ax
  1014b3:	66 90                	xchg   %ax,%ax
  1014b5:	66 90                	xchg   %ax,%ax
  1014b7:	66 90                	xchg   %ax,%ax
  1014b9:	66 90                	xchg   %ax,%ax
  1014bb:	66 90                	xchg   %ax,%ax
  1014bd:	66 90                	xchg   %ax,%ax
  1014bf:	90                   	nop

001014c0 <__stack_chk_fail>:
  1014c0:	b9 c9 51 10 00       	mov    $0x1051c9,%ecx
  1014c5:	ba 00 80 0b 00       	mov    $0xb8000,%edx
  1014ca:	b8 2a 00 00 00       	mov    $0x2a,%eax
  1014cf:	2e 8d b4 26 00 00 00 	lea    %cs:0x0(%esi,%eiz,1),%esi
  1014d6:	00 
  1014d7:	2e 8d b4 26 00 00 00 	lea    %cs:0x0(%esi,%eiz,1),%esi
  1014de:	00 
  1014df:	90                   	nop
  1014e0:	80 cc 4f             	or     $0x4f,%ah
  1014e3:	83 c2 02             	add    $0x2,%edx
  1014e6:	83 c1 01             	add    $0x1,%ecx
  1014e9:	66 89 42 fe          	mov    %ax,-0x2(%edx)
  1014ed:	66 0f be 41 ff       	movsbw -0x1(%ecx),%ax
  1014f2:	81 fa 3e 80 0b 00    	cmp    $0xb803e,%edx
  1014f8:	75 e6                	jne    1014e0 <__stack_chk_fail+0x20>
  1014fa:	fa                   	cli
  1014fb:	f4                   	hlt
  1014fc:	eb fe                	jmp    1014fc <__stack_chk_fail+0x3c>
  1014fe:	66 90                	xchg   %ax,%ax

00101500 <halt>:
  101500:	f4                   	hlt
  101501:	eb fd                	jmp    101500 <halt>
  101503:	2e 8d b4 26 00 00 00 	lea    %cs:0x0(%esi,%eiz,1),%esi
  10150a:	00 
  10150b:	2e 8d 74 26 00       	lea    %cs:0x0(%esi,%eiz,1),%esi

00101510 <system_halt>:
  101510:	fa                   	cli
  101511:	f4                   	hlt
  101512:	c3                   	ret
  101513:	66 90                	xchg   %ax,%ax
  101515:	66 90                	xchg   %ax,%ax
  101517:	66 90                	xchg   %ax,%ax
  101519:	66 90                	xchg   %ax,%ax
  10151b:	66 90                	xchg   %ax,%ax
  10151d:	66 90                	xchg   %ax,%ax
  10151f:	90                   	nop

00101520 <isprintable>:
  101520:	55                   	push   %ebp
  101521:	89 e5                	mov    %esp,%ebp
  101523:	0f b6 45 08          	movzbl 0x8(%ebp),%eax
  101527:	5d                   	pop    %ebp
  101528:	83 e8 20             	sub    $0x20,%eax
  10152b:	3c 5e                	cmp    $0x5e,%al
  10152d:	0f 96 c0             	setbe  %al
  101530:	0f b6 c0             	movzbl %al,%eax
  101533:	c3                   	ret
  101534:	2e 8d b4 26 00 00 00 	lea    %cs:0x0(%esi,%eiz,1),%esi
  10153b:	00 
  10153c:	8d 74 26 00          	lea    0x0(%esi,%eiz,1),%esi

00101540 <iswhitespace>:
  101540:	55                   	push   %ebp
  101541:	31 d2                	xor    %edx,%edx
  101543:	89 e5                	mov    %esp,%ebp
  101545:	0f b6 45 08          	movzbl 0x8(%ebp),%eax
  101549:	5d                   	pop    %ebp
  10154a:	8d 48 f7             	lea    -0x9(%eax),%ecx
  10154d:	b8 13 00 80 00       	mov    $0x800013,%eax
  101552:	d3 e8                	shr    %cl,%eax
  101554:	83 e0 01             	and    $0x1,%eax
  101557:	80 f9 18             	cmp    $0x18,%cl
  10155a:	0f 43 c2             	cmovae %edx,%eax
  10155d:	c3                   	ret
  10155e:	66 90                	xchg   %ax,%ax

00101560 <isalpha>:
  101560:	55                   	push   %ebp
  101561:	89 e5                	mov    %esp,%ebp
  101563:	0f b6 45 08          	movzbl 0x8(%ebp),%eax
  101567:	5d                   	pop    %ebp
  101568:	83 e0 df             	and    $0xffffffdf,%eax
  10156b:	83 e8 41             	sub    $0x41,%eax
  10156e:	3c 19                	cmp    $0x19,%al
  101570:	0f 96 c0             	setbe  %al
  101573:	0f b6 c0             	movzbl %al,%eax
  101576:	c3                   	ret
  101577:	2e 8d b4 26 00 00 00 	lea    %cs:0x0(%esi,%eiz,1),%esi
  10157e:	00 
  10157f:	90                   	nop

00101580 <isnum>:
  101580:	55                   	push   %ebp
  101581:	89 e5                	mov    %esp,%ebp
  101583:	0f b6 45 08          	movzbl 0x8(%ebp),%eax
  101587:	5d                   	pop    %ebp
  101588:	83 e8 30             	sub    $0x30,%eax
  10158b:	3c 09                	cmp    $0x9,%al
  10158d:	0f 96 c0             	setbe  %al
  101590:	0f b6 c0             	movzbl %al,%eax
  101593:	c3                   	ret
  101594:	2e 8d b4 26 00 00 00 	lea    %cs:0x0(%esi,%eiz,1),%esi
  10159b:	00 
  10159c:	8d 74 26 00          	lea    0x0(%esi,%eiz,1),%esi

001015a0 <isalphanum>:
  1015a0:	55                   	push   %ebp
  1015a1:	b9 01 00 00 00       	mov    $0x1,%ecx
  1015a6:	89 e5                	mov    %esp,%ebp
  1015a8:	8b 55 08             	mov    0x8(%ebp),%edx
  1015ab:	89 d0                	mov    %edx,%eax
  1015ad:	83 e0 df             	and    $0xffffffdf,%eax
  1015b0:	83 e8 41             	sub    $0x41,%eax
  1015b3:	3c 19                	cmp    $0x19,%al
  1015b5:	76 0b                	jbe    1015c2 <isalphanum+0x22>
  1015b7:	83 ea 30             	sub    $0x30,%edx
  1015ba:	31 c9                	xor    %ecx,%ecx
  1015bc:	80 fa 09             	cmp    $0x9,%dl
  1015bf:	0f 96 c1             	setbe  %cl
  1015c2:	89 c8                	mov    %ecx,%eax
  1015c4:	5d                   	pop    %ebp
  1015c5:	c3                   	ret
  1015c6:	66 90                	xchg   %ax,%ax
  1015c8:	66 90                	xchg   %ax,%ax
  1015ca:	66 90                	xchg   %ax,%ax
  1015cc:	66 90                	xchg   %ax,%ax
  1015ce:	66 90                	xchg   %ax,%ax

001015d0 <seed_rng>:
  1015d0:	55                   	push   %ebp
  1015d1:	ba 01 00 00 00       	mov    $0x1,%edx
  1015d6:	89 e5                	mov    %esp,%ebp
  1015d8:	8b 45 08             	mov    0x8(%ebp),%eax
  1015db:	5d                   	pop    %ebp
  1015dc:	85 c0                	test   %eax,%eax
  1015de:	0f 44 c2             	cmove  %edx,%eax
  1015e1:	a3 e0 d4 10 00       	mov    %eax,0x10d4e0
  1015e6:	c3                   	ret
  1015e7:	2e 8d b4 26 00 00 00 	lea    %cs:0x0(%esi,%eiz,1),%esi
  1015ee:	00 
  1015ef:	90                   	nop

001015f0 <random_next>:
  1015f0:	8b 15 e0 d4 10 00    	mov    0x10d4e0,%edx
  1015f6:	89 d0                	mov    %edx,%eax
  1015f8:	c1 e0 0d             	shl    $0xd,%eax
  1015fb:	31 d0                	xor    %edx,%eax
  1015fd:	89 c2                	mov    %eax,%edx
  1015ff:	c1 ea 11             	shr    $0x11,%edx
  101602:	31 c2                	xor    %eax,%edx
  101604:	89 d0                	mov    %edx,%eax
  101606:	c1 e0 05             	shl    $0x5,%eax
  101609:	31 d0                	xor    %edx,%eax
  10160b:	a3 e0 d4 10 00       	mov    %eax,0x10d4e0
  101610:	c3                   	ret
  101611:	2e 8d b4 26 00 00 00 	lea    %cs:0x0(%esi,%eiz,1),%esi
  101618:	00 
  101619:	8d b4 26 00 00 00 00 	lea    0x0(%esi,%eiz,1),%esi

00101620 <random_range>:
  101620:	55                   	push   %ebp
  101621:	31 d2                	xor    %edx,%edx
  101623:	89 e5                	mov    %esp,%ebp
  101625:	8b 4d 08             	mov    0x8(%ebp),%ecx
  101628:	85 c9                	test   %ecx,%ecx
  10162a:	74 23                	je     10164f <random_range+0x2f>
  10162c:	a1 e0 d4 10 00       	mov    0x10d4e0,%eax
  101631:	89 c2                	mov    %eax,%edx
  101633:	c1 e2 0d             	shl    $0xd,%edx
  101636:	31 d0                	xor    %edx,%eax
  101638:	89 c2                	mov    %eax,%edx
  10163a:	c1 ea 11             	shr    $0x11,%edx
  10163d:	31 d0                	xor    %edx,%eax
  10163f:	89 c2                	mov    %eax,%edx
  101641:	c1 e2 05             	shl    $0x5,%edx
  101644:	31 d0                	xor    %edx,%eax
  101646:	31 d2                	xor    %edx,%edx
  101648:	a3 e0 d4 10 00       	mov    %eax,0x10d4e0
  10164d:	f7 f1                	div    %ecx
  10164f:	89 d0                	mov    %edx,%eax
  101651:	5d                   	pop    %ebp
  101652:	c3                   	ret
  101653:	66 90                	xchg   %ax,%ax
  101655:	66 90                	xchg   %ax,%ax
  101657:	66 90                	xchg   %ax,%ax
  101659:	66 90                	xchg   %ax,%ax
  10165b:	66 90                	xchg   %ax,%ax
  10165d:	66 90                	xchg   %ax,%ax
  10165f:	90                   	nop

00101660 <page_fault>:
  101660:	55                   	push   %ebp
  101661:	89 e5                	mov    %esp,%ebp
  101663:	56                   	push   %esi
  101664:	53                   	push   %ebx
  101665:	0f 20 d6             	mov    %cr2,%esi
  101668:	8b 45 08             	mov    0x8(%ebp),%eax
  10166b:	83 ec 08             	sub    $0x8,%esp
  10166e:	8b 58 28             	mov    0x28(%eax),%ebx
  101671:	68 14 62 10 00       	push   $0x106214
  101676:	6a 03                	push   $0x3
  101678:	e8 a3 33 00 00       	call   104a20 <logf>
  10167d:	83 c4 10             	add    $0x10,%esp
  101680:	f6 c3 01             	test   $0x1,%bl
  101683:	74 7b                	je     101700 <page_fault+0xa0>
  101685:	f6 c3 02             	test   $0x2,%bl
  101688:	0f 85 8b 00 00 00    	jne    101719 <page_fault+0xb9>
  10168e:	f6 c3 04             	test   $0x4,%bl
  101691:	0f 85 9b 00 00 00    	jne    101732 <page_fault+0xd2>
  101697:	f6 c3 08             	test   $0x8,%bl
  10169a:	0f 85 ab 00 00 00    	jne    10174b <page_fault+0xeb>
  1016a0:	83 e3 10             	and    $0x10,%ebx
  1016a3:	0f 85 bb 00 00 00    	jne    101764 <page_fault+0x104>
  1016a9:	83 ec 08             	sub    $0x8,%esp
  1016ac:	56                   	push   %esi
  1016ad:	68 64 62 10 00       	push   $0x106264
  1016b2:	e8 79 34 00 00       	call   104b30 <printf>
  1016b7:	58                   	pop    %eax
  1016b8:	8b 45 08             	mov    0x8(%ebp),%eax
  1016bb:	5a                   	pop    %edx
  1016bc:	ff 70 2c             	push   0x2c(%eax)
  1016bf:	68 6f 62 10 00       	push   $0x10626f
  1016c4:	e8 67 34 00 00       	call   104b30 <printf>
  1016c9:	59                   	pop    %ecx
  1016ca:	5b                   	pop    %ebx
  1016cb:	68 7a 62 10 00       	push   $0x10627a
  1016d0:	6a 03                	push   $0x3
  1016d2:	e8 49 33 00 00       	call   104a20 <logf>
  1016d7:	5e                   	pop    %esi
  1016d8:	58                   	pop    %eax
  1016d9:	68 96 62 10 00       	push   $0x106296
  1016de:	6a 03                	push   $0x3
  1016e0:	e8 3b 33 00 00       	call   104a20 <logf>
  1016e5:	58                   	pop    %eax
  1016e6:	5a                   	pop    %edx
  1016e7:	68 e8 51 10 00       	push   $0x1051e8
  1016ec:	6a 03                	push   $0x3
  1016ee:	e8 2d 33 00 00       	call   104a20 <logf>
  1016f3:	fa                   	cli
  1016f4:	f4                   	hlt
  1016f5:	83 c4 10             	add    $0x10,%esp
  1016f8:	8d 65 f8             	lea    -0x8(%ebp),%esp
  1016fb:	5b                   	pop    %ebx
  1016fc:	5e                   	pop    %esi
  1016fd:	5d                   	pop    %ebp
  1016fe:	c3                   	ret
  1016ff:	90                   	nop
  101700:	83 ec 0c             	sub    $0xc,%esp
  101703:	68 24 62 10 00       	push   $0x106224
  101708:	e8 23 34 00 00       	call   104b30 <printf>
  10170d:	83 c4 10             	add    $0x10,%esp
  101710:	f6 c3 02             	test   $0x2,%bl
  101713:	0f 84 75 ff ff ff    	je     10168e <page_fault+0x2e>
  101719:	83 ec 0c             	sub    $0xc,%esp
  10171c:	68 31 62 10 00       	push   $0x106231
  101721:	e8 0a 34 00 00       	call   104b30 <printf>
  101726:	83 c4 10             	add    $0x10,%esp
  101729:	f6 c3 04             	test   $0x4,%bl
  10172c:	0f 84 65 ff ff ff    	je     101697 <page_fault+0x37>
  101732:	83 ec 0c             	sub    $0xc,%esp
  101735:	68 3c 62 10 00       	push   $0x10623c
  10173a:	e8 f1 33 00 00       	call   104b30 <printf>
  10173f:	83 c4 10             	add    $0x10,%esp
  101742:	f6 c3 08             	test   $0x8,%bl
  101745:	0f 84 55 ff ff ff    	je     1016a0 <page_fault+0x40>
  10174b:	83 ec 0c             	sub    $0xc,%esp
  10174e:	68 47 62 10 00       	push   $0x106247
  101753:	e8 d8 33 00 00       	call   104b30 <printf>
  101758:	83 c4 10             	add    $0x10,%esp
  10175b:	83 e3 10             	and    $0x10,%ebx
  10175e:	0f 84 45 ff ff ff    	je     1016a9 <page_fault+0x49>
  101764:	83 ec 0c             	sub    $0xc,%esp
  101767:	68 51 62 10 00       	push   $0x106251
  10176c:	e8 bf 33 00 00       	call   104b30 <printf>
  101771:	83 c4 10             	add    $0x10,%esp
  101774:	e9 30 ff ff ff       	jmp    1016a9 <page_fault+0x49>
  101779:	8d b4 26 00 00 00 00 	lea    0x0(%esi,%eiz,1),%esi

00101780 <alloc_frame.part.0>:
  101780:	55                   	push   %ebp
  101781:	89 e5                	mov    %esp,%ebp
  101783:	57                   	push   %edi
  101784:	56                   	push   %esi
  101785:	53                   	push   %ebx
  101786:	83 ec 1c             	sub    $0x1c,%esp
  101789:	8b 35 ec d4 10 00    	mov    0x10d4ec,%esi
  10178f:	89 55 e0             	mov    %edx,-0x20(%ebp)
  101792:	89 4d dc             	mov    %ecx,-0x24(%ebp)
  101795:	c1 ee 05             	shr    $0x5,%esi
  101798:	89 75 e4             	mov    %esi,-0x1c(%ebp)
  10179b:	0f 84 93 00 00 00    	je     101834 <alloc_frame.part.0+0xb4>
  1017a1:	89 45 d8             	mov    %eax,-0x28(%ebp)
  1017a4:	8b 35 f0 d4 10 00    	mov    0x10d4f0,%esi
  1017aa:	31 ff                	xor    %edi,%edi
  1017ac:	8b 14 be             	mov    (%esi,%edi,4),%edx
  1017af:	83 fa ff             	cmp    $0xffffffff,%edx
  1017b2:	74 74                	je     101828 <alloc_frame.part.0+0xa8>
  1017b4:	89 d1                	mov    %edx,%ecx
  1017b6:	83 e1 01             	and    $0x1,%ecx
  1017b9:	74 18                	je     1017d3 <alloc_frame.part.0+0x53>
  1017bb:	31 c9                	xor    %ecx,%ecx
  1017bd:	8d 76 00             	lea    0x0(%esi),%esi
  1017c0:	83 c1 01             	add    $0x1,%ecx
  1017c3:	83 f9 20             	cmp    $0x20,%ecx
  1017c6:	74 60                	je     101828 <alloc_frame.part.0+0xa8>
  1017c8:	b8 01 00 00 00       	mov    $0x1,%eax
  1017cd:	d3 e0                	shl    %cl,%eax
  1017cf:	85 d0                	test   %edx,%eax
  1017d1:	75 ed                	jne    1017c0 <alloc_frame.part.0+0x40>
  1017d3:	c1 e7 05             	shl    $0x5,%edi
  1017d6:	8b 45 d8             	mov    -0x28(%ebp),%eax
  1017d9:	ba 01 00 00 00       	mov    $0x1,%edx
  1017de:	01 cf                	add    %ecx,%edi
  1017e0:	c1 e7 0c             	shl    $0xc,%edi
  1017e3:	89 fb                	mov    %edi,%ebx
  1017e5:	89 f9                	mov    %edi,%ecx
  1017e7:	c1 eb 11             	shr    $0x11,%ebx
  1017ea:	c1 e9 0c             	shr    $0xc,%ecx
  1017ed:	d3 e2                	shl    %cl,%edx
  1017ef:	09 14 9e             	or     %edx,(%esi,%ebx,4)
  1017f2:	8b 10                	mov    (%eax),%edx
  1017f4:	8b 5d dc             	mov    -0x24(%ebp),%ebx
  1017f7:	8b 75 e0             	mov    -0x20(%ebp),%esi
  1017fa:	89 d1                	mov    %edx,%ecx
  1017fc:	83 ca 03             	or     $0x3,%edx
  1017ff:	83 c9 01             	or     $0x1,%ecx
  101802:	85 db                	test   %ebx,%ebx
  101804:	0f 44 d1             	cmove  %ecx,%edx
  101807:	89 d1                	mov    %edx,%ecx
  101809:	83 c9 04             	or     $0x4,%ecx
  10180c:	85 f6                	test   %esi,%esi
  10180e:	0f 44 d1             	cmove  %ecx,%edx
  101811:	81 e2 ff 0f 00 00    	and    $0xfff,%edx
  101817:	09 fa                	or     %edi,%edx
  101819:	89 10                	mov    %edx,(%eax)
  10181b:	8d 65 f4             	lea    -0xc(%ebp),%esp
  10181e:	5b                   	pop    %ebx
  10181f:	5e                   	pop    %esi
  101820:	5f                   	pop    %edi
  101821:	5d                   	pop    %ebp
  101822:	c3                   	ret
  101823:	2e 8d 74 26 00       	lea    %cs:0x0(%esi,%eiz,1),%esi
  101828:	83 c7 01             	add    $0x1,%edi
  10182b:	39 7d e4             	cmp    %edi,-0x1c(%ebp)
  10182e:	0f 85 78 ff ff ff    	jne    1017ac <alloc_frame.part.0+0x2c>
  101834:	83 ec 08             	sub    $0x8,%esp
  101837:	68 10 52 10 00       	push   $0x105210
  10183c:	6a 03                	push   $0x3
  10183e:	e8 dd 31 00 00       	call   104a20 <logf>
  101843:	fa                   	cli
  101844:	f4                   	hlt
  101845:	83 c4 10             	add    $0x10,%esp
  101848:	eb fe                	jmp    101848 <alloc_frame.part.0+0xc8>
  10184a:	8d b6 00 00 00 00    	lea    0x0(%esi),%esi

00101850 <alloc_frame>:
  101850:	55                   	push   %ebp
  101851:	89 e5                	mov    %esp,%ebp
  101853:	53                   	push   %ebx
  101854:	8b 45 08             	mov    0x8(%ebp),%eax
  101857:	8b 55 0c             	mov    0xc(%ebp),%edx
  10185a:	8b 4d 10             	mov    0x10(%ebp),%ecx
  10185d:	8b 18                	mov    (%eax),%ebx
  10185f:	c1 eb 0c             	shr    $0xc,%ebx
  101862:	74 0c                	je     101870 <alloc_frame+0x20>
  101864:	8b 5d fc             	mov    -0x4(%ebp),%ebx
  101867:	c9                   	leave
  101868:	c3                   	ret
  101869:	8d b4 26 00 00 00 00 	lea    0x0(%esi,%eiz,1),%esi
  101870:	8b 5d fc             	mov    -0x4(%ebp),%ebx
  101873:	c9                   	leave
  101874:	e9 07 ff ff ff       	jmp    101780 <alloc_frame.part.0>
  101879:	8d b4 26 00 00 00 00 	lea    0x0(%esi,%eiz,1),%esi

00101880 <free_frame>:
  101880:	55                   	push   %ebp
  101881:	89 e5                	mov    %esp,%ebp
  101883:	53                   	push   %ebx
  101884:	8b 45 08             	mov    0x8(%ebp),%eax
  101887:	8b 08                	mov    (%eax),%ecx
  101889:	c1 e9 0c             	shr    $0xc,%ecx
  10188c:	74 1b                	je     1018a9 <free_frame+0x29>
  10188e:	ba fe ff ff ff       	mov    $0xfffffffe,%edx
  101893:	89 cb                	mov    %ecx,%ebx
  101895:	d3 c2                	rol    %cl,%edx
  101897:	8b 0d f0 d4 10 00    	mov    0x10d4f0,%ecx
  10189d:	c1 eb 05             	shr    $0x5,%ebx
  1018a0:	21 14 99             	and    %edx,(%ecx,%ebx,4)
  1018a3:	c7 00 00 00 00 00    	movl   $0x0,(%eax)
  1018a9:	8b 5d fc             	mov    -0x4(%ebp),%ebx
  1018ac:	c9                   	leave
  1018ad:	c3                   	ret
  1018ae:	66 90                	xchg   %ax,%ax

001018b0 <switch_page_directory>:
  1018b0:	55                   	push   %ebp
  1018b1:	89 e5                	mov    %esp,%ebp
  1018b3:	8b 45 08             	mov    0x8(%ebp),%eax
  1018b6:	a3 e4 d4 10 00       	mov    %eax,0x10d4e4
  1018bb:	0f 22 d8             	mov    %eax,%cr3
  1018be:	0f 20 c0             	mov    %cr0,%eax
  1018c1:	0d 00 00 00 80       	or     $0x80000000,%eax
  1018c6:	0f 22 c0             	mov    %eax,%cr0
  1018c9:	5d                   	pop    %ebp
  1018ca:	c3                   	ret
  1018cb:	2e 8d 74 26 00       	lea    %cs:0x0(%esi,%eiz,1),%esi

001018d0 <get_page>:
  1018d0:	55                   	push   %ebp
  1018d1:	89 e5                	mov    %esp,%ebp
  1018d3:	83 ec 18             	sub    $0x18,%esp
  1018d6:	8b 4d 08             	mov    0x8(%ebp),%ecx
  1018d9:	8b 45 10             	mov    0x10(%ebp),%eax
  1018dc:	c1 e9 16             	shr    $0x16,%ecx
  1018df:	8d 0c 88             	lea    (%eax,%ecx,4),%ecx
  1018e2:	8b 01                	mov    (%ecx),%eax
  1018e4:	a8 01                	test   $0x1,%al
  1018e6:	75 3a                	jne    101922 <get_page+0x52>
  1018e8:	8b 55 0c             	mov    0xc(%ebp),%edx
  1018eb:	31 c0                	xor    %eax,%eax
  1018ed:	85 d2                	test   %edx,%edx
  1018ef:	74 44                	je     101935 <get_page+0x65>
  1018f1:	83 ec 0c             	sub    $0xc,%esp
  1018f4:	68 00 10 00 00       	push   $0x1000
  1018f9:	89 4d f0             	mov    %ecx,-0x10(%ebp)
  1018fc:	e8 df 2c 00 00       	call   1045e0 <kmalloc_a>
  101901:	83 c4 0c             	add    $0xc,%esp
  101904:	68 00 10 00 00       	push   $0x1000
  101909:	6a 00                	push   $0x0
  10190b:	50                   	push   %eax
  10190c:	89 45 f4             	mov    %eax,-0xc(%ebp)
  10190f:	e8 3c 0e 00 00       	call   102750 <memset>
  101914:	8b 45 f4             	mov    -0xc(%ebp),%eax
  101917:	8b 4d f0             	mov    -0x10(%ebp),%ecx
  10191a:	83 c4 10             	add    $0x10,%esp
  10191d:	83 c8 03             	or     $0x3,%eax
  101920:	89 01                	mov    %eax,(%ecx)
  101922:	8b 55 08             	mov    0x8(%ebp),%edx
  101925:	25 00 f0 ff ff       	and    $0xfffff000,%eax
  10192a:	c1 ea 0a             	shr    $0xa,%edx
  10192d:	81 e2 fc 0f 00 00    	and    $0xffc,%edx
  101933:	01 d0                	add    %edx,%eax
  101935:	c9                   	leave
  101936:	c3                   	ret
  101937:	2e 8d b4 26 00 00 00 	lea    %cs:0x0(%esi,%eiz,1),%esi
  10193e:	00 
  10193f:	90                   	nop

00101940 <map_physical_range>:
  101940:	55                   	push   %ebp
  101941:	89 e5                	mov    %esp,%ebp
  101943:	57                   	push   %edi
  101944:	56                   	push   %esi
  101945:	53                   	push   %ebx
  101946:	83 ec 0c             	sub    $0xc,%esp
  101949:	8b 45 08             	mov    0x8(%ebp),%eax
  10194c:	8b 55 0c             	mov    0xc(%ebp),%edx
  10194f:	8d bc 10 ff 0f 00 00 	lea    0xfff(%eax,%edx,1),%edi
  101956:	89 c3                	mov    %eax,%ebx
  101958:	81 e7 00 f0 ff ff    	and    $0xfffff000,%edi
  10195e:	81 e3 00 f0 ff ff    	and    $0xfffff000,%ebx
  101964:	89 f8                	mov    %edi,%eax
  101966:	29 d8                	sub    %ebx,%eax
  101968:	50                   	push   %eax
  101969:	57                   	push   %edi
  10196a:	53                   	push   %ebx
  10196b:	68 34 52 10 00       	push   $0x105234
  101970:	e8 bb 31 00 00       	call   104b30 <printf>
  101975:	83 c4 10             	add    $0x10,%esp
  101978:	39 fb                	cmp    %edi,%ebx
  10197a:	72 70                	jb     1019ec <map_physical_range+0xac>
  10197c:	e9 cf 00 00 00       	jmp    101a50 <map_physical_range+0x110>
  101981:	8d b4 26 00 00 00 00 	lea    0x0(%esi,%eiz,1),%esi
  101988:	89 da                	mov    %ebx,%edx
  10198a:	83 ec 04             	sub    $0x4,%esp
  10198d:	c1 ea 16             	shr    $0x16,%edx
  101990:	83 0c 90 02          	orl    $0x2,(%eax,%edx,4)
  101994:	50                   	push   %eax
  101995:	6a 01                	push   $0x1
  101997:	53                   	push   %ebx
  101998:	e8 33 ff ff ff       	call   1018d0 <get_page>
  10199d:	83 c4 10             	add    $0x10,%esp
  1019a0:	89 c2                	mov    %eax,%edx
  1019a2:	85 c0                	test   %eax,%eax
  1019a4:	74 7a                	je     101a20 <map_physical_range+0xe0>
  1019a6:	8b 00                	mov    (%eax),%eax
  1019a8:	83 c8 03             	or     $0x3,%eax
  1019ab:	8b 75 10             	mov    0x10(%ebp),%esi
  1019ae:	89 c1                	mov    %eax,%ecx
  1019b0:	83 e0 fb             	and    $0xfffffffb,%eax
  1019b3:	83 c9 04             	or     $0x4,%ecx
  1019b6:	85 f6                	test   %esi,%esi
  1019b8:	0f 44 c1             	cmove  %ecx,%eax
  1019bb:	89 d9                	mov    %ebx,%ecx
  1019bd:	c1 e9 0c             	shr    $0xc,%ecx
  1019c0:	25 ff 0f 00 00       	and    $0xfff,%eax
  1019c5:	09 d8                	or     %ebx,%eax
  1019c7:	89 02                	mov    %eax,(%edx)
  1019c9:	b8 01 00 00 00       	mov    $0x1,%eax
  1019ce:	89 da                	mov    %ebx,%edx
  1019d0:	d3 e0                	shl    %cl,%eax
  1019d2:	c1 ea 11             	shr    $0x11,%edx
  1019d5:	89 c1                	mov    %eax,%ecx
  1019d7:	a1 f0 d4 10 00       	mov    0x10d4f0,%eax
  1019dc:	09 0c 90             	or     %ecx,(%eax,%edx,4)
  1019df:	0f 01 3b             	invlpg (%ebx)
  1019e2:	81 c3 00 10 00 00    	add    $0x1000,%ebx
  1019e8:	39 fb                	cmp    %edi,%ebx
  1019ea:	73 64                	jae    101a50 <map_physical_range+0x110>
  1019ec:	8b 55 14             	mov    0x14(%ebp),%edx
  1019ef:	a1 e8 d4 10 00       	mov    0x10d4e8,%eax
  1019f4:	85 d2                	test   %edx,%edx
  1019f6:	75 90                	jne    101988 <map_physical_range+0x48>
  1019f8:	83 ec 04             	sub    $0x4,%esp
  1019fb:	50                   	push   %eax
  1019fc:	6a 01                	push   $0x1
  1019fe:	53                   	push   %ebx
  1019ff:	e8 cc fe ff ff       	call   1018d0 <get_page>
  101a04:	83 c4 10             	add    $0x10,%esp
  101a07:	89 c2                	mov    %eax,%edx
  101a09:	85 c0                	test   %eax,%eax
  101a0b:	74 2b                	je     101a38 <map_physical_range+0xf8>
  101a0d:	8b 02                	mov    (%edx),%eax
  101a0f:	83 e0 fd             	and    $0xfffffffd,%eax
  101a12:	83 c8 01             	or     $0x1,%eax
  101a15:	eb 94                	jmp    1019ab <map_physical_range+0x6b>
  101a17:	2e 8d b4 26 00 00 00 	lea    %cs:0x0(%esi,%eiz,1),%esi
  101a1e:	00 
  101a1f:	90                   	nop
  101a20:	81 c3 00 10 00 00    	add    $0x1000,%ebx
  101a26:	39 fb                	cmp    %edi,%ebx
  101a28:	73 26                	jae    101a50 <map_physical_range+0x110>
  101a2a:	a1 e8 d4 10 00       	mov    0x10d4e8,%eax
  101a2f:	e9 54 ff ff ff       	jmp    101988 <map_physical_range+0x48>
  101a34:	8d 74 26 00          	lea    0x0(%esi,%eiz,1),%esi
  101a38:	81 c3 00 10 00 00    	add    $0x1000,%ebx
  101a3e:	39 fb                	cmp    %edi,%ebx
  101a40:	73 0e                	jae    101a50 <map_physical_range+0x110>
  101a42:	a1 e8 d4 10 00       	mov    0x10d4e8,%eax
  101a47:	eb af                	jmp    1019f8 <map_physical_range+0xb8>
  101a49:	8d b4 26 00 00 00 00 	lea    0x0(%esi,%eiz,1),%esi
  101a50:	8d 65 f4             	lea    -0xc(%ebp),%esp
  101a53:	5b                   	pop    %ebx
  101a54:	5e                   	pop    %esi
  101a55:	5f                   	pop    %edi
  101a56:	5d                   	pop    %ebp
  101a57:	c3                   	ret
  101a58:	2e 8d b4 26 00 00 00 	lea    %cs:0x0(%esi,%eiz,1),%esi
  101a5f:	00 

00101a60 <init_paging>:
  101a60:	55                   	push   %ebp
  101a61:	89 e5                	mov    %esp,%ebp
  101a63:	56                   	push   %esi
  101a64:	53                   	push   %ebx
  101a65:	c7 05 ec d4 10 00 00 	movl   $0x4000,0x10d4ec
  101a6c:	40 00 00 
  101a6f:	83 ec 0c             	sub    $0xc,%esp
  101a72:	68 00 08 00 00       	push   $0x800
  101a77:	e8 e4 2b 00 00       	call   104660 <kmalloc>
  101a7c:	83 c4 0c             	add    $0xc,%esp
  101a7f:	a3 f0 d4 10 00       	mov    %eax,0x10d4f0
  101a84:	89 c2                	mov    %eax,%edx
  101a86:	a1 ec d4 10 00       	mov    0x10d4ec,%eax
  101a8b:	c1 e8 05             	shr    $0x5,%eax
  101a8e:	c1 e0 02             	shl    $0x2,%eax
  101a91:	50                   	push   %eax
  101a92:	6a 00                	push   $0x0
  101a94:	52                   	push   %edx
  101a95:	e8 b6 0c 00 00       	call   102750 <memset>
  101a9a:	c7 04 24 00 10 00 00 	movl   $0x1000,(%esp)
  101aa1:	e8 3a 2b 00 00       	call   1045e0 <kmalloc_a>
  101aa6:	83 c4 0c             	add    $0xc,%esp
  101aa9:	a3 e8 d4 10 00       	mov    %eax,0x10d4e8
  101aae:	68 00 10 00 00       	push   $0x1000
  101ab3:	6a 00                	push   $0x0
  101ab5:	50                   	push   %eax
  101ab6:	e8 95 0c 00 00       	call   102750 <memset>
  101abb:	a1 e8 d4 10 00       	mov    0x10d4e8,%eax
  101ac0:	8b 35 48 f3 10 00    	mov    0x10f348,%esi
  101ac6:	83 c4 10             	add    $0x10,%esp
  101ac9:	a3 e4 d4 10 00       	mov    %eax,0x10d4e4
  101ace:	81 c6 00 00 80 00    	add    $0x800000,%esi
  101ad4:	74 3e                	je     101b14 <init_paging+0xb4>
  101ad6:	31 db                	xor    %ebx,%ebx
  101ad8:	eb 0b                	jmp    101ae5 <init_paging+0x85>
  101ada:	8d b6 00 00 00 00    	lea    0x0(%esi),%esi
  101ae0:	a1 e8 d4 10 00       	mov    0x10d4e8,%eax
  101ae5:	83 ec 04             	sub    $0x4,%esp
  101ae8:	50                   	push   %eax
  101ae9:	6a 01                	push   $0x1
  101aeb:	53                   	push   %ebx
  101aec:	e8 df fd ff ff       	call   1018d0 <get_page>
  101af1:	83 c4 10             	add    $0x10,%esp
  101af4:	8b 08                	mov    (%eax),%ecx
  101af6:	c1 e9 0c             	shr    $0xc,%ecx
  101af9:	75 0f                	jne    101b0a <init_paging+0xaa>
  101afb:	b9 01 00 00 00       	mov    $0x1,%ecx
  101b00:	ba 01 00 00 00       	mov    $0x1,%edx
  101b05:	e8 76 fc ff ff       	call   101780 <alloc_frame.part.0>
  101b0a:	81 c3 00 10 00 00    	add    $0x1000,%ebx
  101b10:	39 f3                	cmp    %esi,%ebx
  101b12:	72 cc                	jb     101ae0 <init_paging+0x80>
  101b14:	6a 01                	push   $0x1
  101b16:	6a 01                	push   $0x1
  101b18:	68 00 00 08 00       	push   $0x80000
  101b1d:	68 00 00 08 00       	push   $0x80000
  101b22:	e8 19 fe ff ff       	call   101940 <map_physical_range>
  101b27:	6a 01                	push   $0x1
  101b29:	6a 01                	push   $0x1
  101b2b:	68 00 00 02 00       	push   $0x20000
  101b30:	68 00 00 fe 07       	push   $0x7fe0000
  101b35:	e8 06 fe ff ff       	call   101940 <map_physical_range>
  101b3a:	83 c4 20             	add    $0x20,%esp
  101b3d:	6a 01                	push   $0x1
  101b3f:	6a 01                	push   $0x1
  101b41:	68 00 00 02 00       	push   $0x20000
  101b46:	68 00 00 0e 00       	push   $0xe0000
  101b4b:	e8 f0 fd ff ff       	call   101940 <map_physical_range>
  101b50:	6a 01                	push   $0x1
  101b52:	6a 01                	push   $0x1
  101b54:	68 00 10 00 00       	push   $0x1000
  101b59:	68 00 00 c0 fe       	push   $0xfec00000
  101b5e:	e8 dd fd ff ff       	call   101940 <map_physical_range>
  101b63:	83 c4 20             	add    $0x20,%esp
  101b66:	6a 01                	push   $0x1
  101b68:	6a 01                	push   $0x1
  101b6a:	68 00 10 00 00       	push   $0x1000
  101b6f:	68 00 00 e0 fe       	push   $0xfee00000
  101b74:	e8 c7 fd ff ff       	call   101940 <map_physical_range>
  101b79:	58                   	pop    %eax
  101b7a:	5a                   	pop    %edx
  101b7b:	68 60 16 10 00       	push   $0x101660
  101b80:	6a 0e                	push   $0xe
  101b82:	e8 c9 f6 ff ff       	call   101250 <register_interrupt_handler>
  101b87:	a1 e8 d4 10 00       	mov    0x10d4e8,%eax
  101b8c:	a3 e4 d4 10 00       	mov    %eax,0x10d4e4
  101b91:	0f 22 d8             	mov    %eax,%cr3
  101b94:	0f 20 c0             	mov    %cr0,%eax
  101b97:	0d 00 00 00 80       	or     $0x80000000,%eax
  101b9c:	0f 22 c0             	mov    %eax,%cr0
  101b9f:	83 c4 10             	add    $0x10,%esp
  101ba2:	8d 65 f8             	lea    -0x8(%ebp),%esp
  101ba5:	5b                   	pop    %ebx
  101ba6:	5e                   	pop    %esi
  101ba7:	5d                   	pop    %ebp
  101ba8:	c3                   	ret
  101ba9:	8d b4 26 00 00 00 00 	lea    0x0(%esi,%eiz,1),%esi

00101bb0 <map_page>:
  101bb0:	55                   	push   %ebp
  101bb1:	89 e5                	mov    %esp,%ebp
  101bb3:	57                   	push   %edi
  101bb4:	56                   	push   %esi
  101bb5:	53                   	push   %ebx
  101bb6:	83 ec 20             	sub    $0x20,%esp
  101bb9:	8b 45 08             	mov    0x8(%ebp),%eax
  101bbc:	8b 5d 0c             	mov    0xc(%ebp),%ebx
  101bbf:	8b 75 10             	mov    0x10(%ebp),%esi
  101bc2:	8b 7d 14             	mov    0x14(%ebp),%edi
  101bc5:	25 00 f0 ff ff       	and    $0xfffff000,%eax
  101bca:	89 45 e4             	mov    %eax,-0x1c(%ebp)
  101bcd:	ff 35 e4 d4 10 00    	push   0x10d4e4
  101bd3:	6a 01                	push   $0x1
  101bd5:	50                   	push   %eax
  101bd6:	e8 f5 fc ff ff       	call   1018d0 <get_page>
  101bdb:	83 c4 10             	add    $0x10,%esp
  101bde:	85 c0                	test   %eax,%eax
  101be0:	74 5e                	je     101c40 <map_page+0x90>
  101be2:	89 c1                	mov    %eax,%ecx
  101be4:	8b 00                	mov    (%eax),%eax
  101be6:	81 e3 00 f0 ff ff    	and    $0xfffff000,%ebx
  101bec:	25 ff 0f 00 00       	and    $0xfff,%eax
  101bf1:	09 d8                	or     %ebx,%eax
  101bf3:	89 c2                	mov    %eax,%edx
  101bf5:	83 e0 fd             	and    $0xfffffffd,%eax
  101bf8:	83 ca 03             	or     $0x3,%edx
  101bfb:	83 c8 01             	or     $0x1,%eax
  101bfe:	85 ff                	test   %edi,%edi
  101c00:	0f 45 c2             	cmovne %edx,%eax
  101c03:	89 c7                	mov    %eax,%edi
  101c05:	83 cf 04             	or     $0x4,%edi
  101c08:	85 f6                	test   %esi,%esi
  101c0a:	89 de                	mov    %ebx,%esi
  101c0c:	0f 44 c7             	cmove  %edi,%eax
  101c0f:	c1 eb 0c             	shr    $0xc,%ebx
  101c12:	bf 01 00 00 00       	mov    $0x1,%edi
  101c17:	c1 ee 11             	shr    $0x11,%esi
  101c1a:	89 01                	mov    %eax,(%ecx)
  101c1c:	a1 f0 d4 10 00       	mov    0x10d4f0,%eax
  101c21:	89 d9                	mov    %ebx,%ecx
  101c23:	d3 e7                	shl    %cl,%edi
  101c25:	09 3c b0             	or     %edi,(%eax,%esi,4)
  101c28:	8b 45 e4             	mov    -0x1c(%ebp),%eax
  101c2b:	0f 01 38             	invlpg (%eax)
  101c2e:	8d 65 f4             	lea    -0xc(%ebp),%esp
  101c31:	5b                   	pop    %ebx
  101c32:	5e                   	pop    %esi
  101c33:	5f                   	pop    %edi
  101c34:	5d                   	pop    %ebp
  101c35:	c3                   	ret
  101c36:	2e 8d b4 26 00 00 00 	lea    %cs:0x0(%esi,%eiz,1),%esi
  101c3d:	00 
  101c3e:	66 90                	xchg   %ax,%ax
  101c40:	8b 45 e4             	mov    -0x1c(%ebp),%eax
  101c43:	c7 45 08 6c 52 10 00 	movl   $0x10526c,0x8(%ebp)
  101c4a:	89 45 0c             	mov    %eax,0xc(%ebp)
  101c4d:	8d 65 f4             	lea    -0xc(%ebp),%esp
  101c50:	5b                   	pop    %ebx
  101c51:	5e                   	pop    %esi
  101c52:	5f                   	pop    %edi
  101c53:	5d                   	pop    %ebp
  101c54:	e9 d7 2e 00 00       	jmp    104b30 <printf>
  101c59:	8d b4 26 00 00 00 00 	lea    0x0(%esi,%eiz,1),%esi

00101c60 <unmap_page>:
  101c60:	55                   	push   %ebp
  101c61:	8b 0d e4 d4 10 00    	mov    0x10d4e4,%ecx
  101c67:	89 e5                	mov    %esp,%ebp
  101c69:	56                   	push   %esi
  101c6a:	8b 45 08             	mov    0x8(%ebp),%eax
  101c6d:	53                   	push   %ebx
  101c6e:	89 c2                	mov    %eax,%edx
  101c70:	c1 e8 16             	shr    $0x16,%eax
  101c73:	8b 04 81             	mov    (%ecx,%eax,4),%eax
  101c76:	81 e2 00 f0 ff ff    	and    $0xfffff000,%edx
  101c7c:	a8 01                	test   $0x1,%al
  101c7e:	74 1b                	je     101c9b <unmap_page+0x3b>
  101c80:	89 d1                	mov    %edx,%ecx
  101c82:	25 00 f0 ff ff       	and    $0xfffff000,%eax
  101c87:	c1 e9 0a             	shr    $0xa,%ecx
  101c8a:	81 e1 fc 0f 00 00    	and    $0xffc,%ecx
  101c90:	01 c8                	add    %ecx,%eax
  101c92:	74 07                	je     101c9b <unmap_page+0x3b>
  101c94:	8b 08                	mov    (%eax),%ecx
  101c96:	f6 c1 01             	test   $0x1,%cl
  101c99:	75 05                	jne    101ca0 <unmap_page+0x40>
  101c9b:	5b                   	pop    %ebx
  101c9c:	5e                   	pop    %esi
  101c9d:	5d                   	pop    %ebp
  101c9e:	c3                   	ret
  101c9f:	90                   	nop
  101ca0:	c1 e9 0c             	shr    $0xc,%ecx
  101ca3:	74 1d                	je     101cc2 <unmap_page+0x62>
  101ca5:	be fe ff ff ff       	mov    $0xfffffffe,%esi
  101caa:	89 cb                	mov    %ecx,%ebx
  101cac:	d3 c6                	rol    %cl,%esi
  101cae:	c1 eb 05             	shr    $0x5,%ebx
  101cb1:	89 f1                	mov    %esi,%ecx
  101cb3:	8b 35 f0 d4 10 00    	mov    0x10d4f0,%esi
  101cb9:	21 0c 9e             	and    %ecx,(%esi,%ebx,4)
  101cbc:	c7 00 00 00 00 00    	movl   $0x0,(%eax)
  101cc2:	0f 01 3a             	invlpg (%edx)
  101cc5:	5b                   	pop    %ebx
  101cc6:	5e                   	pop    %esi
  101cc7:	5d                   	pop    %ebp
  101cc8:	c3                   	ret
  101cc9:	8d b4 26 00 00 00 00 	lea    0x0(%esi,%eiz,1),%esi

00101cd0 <is_page_mapped>:
  101cd0:	55                   	push   %ebp
  101cd1:	a1 e4 d4 10 00       	mov    0x10d4e4,%eax
  101cd6:	89 e5                	mov    %esp,%ebp
  101cd8:	8b 55 08             	mov    0x8(%ebp),%edx
  101cdb:	89 d1                	mov    %edx,%ecx
  101cdd:	c1 e9 16             	shr    $0x16,%ecx
  101ce0:	8b 04 88             	mov    (%eax,%ecx,4),%eax
  101ce3:	31 c9                	xor    %ecx,%ecx
  101ce5:	a8 01                	test   $0x1,%al
  101ce7:	74 17                	je     101d00 <is_page_mapped+0x30>
  101ce9:	c1 ea 0a             	shr    $0xa,%edx
  101cec:	25 00 f0 ff ff       	and    $0xfffff000,%eax
  101cf1:	81 e2 fc 0f 00 00    	and    $0xffc,%edx
  101cf7:	01 d0                	add    %edx,%eax
  101cf9:	74 05                	je     101d00 <is_page_mapped+0x30>
  101cfb:	8b 08                	mov    (%eax),%ecx
  101cfd:	83 e1 01             	and    $0x1,%ecx
  101d00:	89 c8                	mov    %ecx,%eax
  101d02:	5d                   	pop    %ebp
  101d03:	c3                   	ret
  101d04:	66 90                	xchg   %ax,%ax
  101d06:	66 90                	xchg   %ax,%ax
  101d08:	66 90                	xchg   %ax,%ax
  101d0a:	66 90                	xchg   %ax,%ax
  101d0c:	66 90                	xchg   %ax,%ax
  101d0e:	66 90                	xchg   %ax,%ax

00101d10 <check_msr>:
  101d10:	55                   	push   %ebp
  101d11:	b8 01 00 00 00       	mov    $0x1,%eax
  101d16:	89 e5                	mov    %esp,%ebp
  101d18:	53                   	push   %ebx
  101d19:	0f a2                	cpuid
  101d1b:	c1 ea 05             	shr    $0x5,%edx
  101d1e:	8b 5d fc             	mov    -0x4(%ebp),%ebx
  101d21:	c9                   	leave
  101d22:	89 d0                	mov    %edx,%eax
  101d24:	83 e0 01             	and    $0x1,%eax
  101d27:	c3                   	ret
  101d28:	2e 8d b4 26 00 00 00 	lea    %cs:0x0(%esi,%eiz,1),%esi
  101d2f:	00 

00101d30 <enable_api_hardware>:
  101d30:	55                   	push   %ebp
  101d31:	b9 1b 00 00 00       	mov    $0x1b,%ecx
  101d36:	89 e5                	mov    %esp,%ebp
  101d38:	53                   	push   %ebx
  101d39:	0f 32                	rdmsr
  101d3b:	89 c3                	mov    %eax,%ebx
  101d3d:	0f 32                	rdmsr
  101d3f:	89 d8                	mov    %ebx,%eax
  101d41:	80 cc 08             	or     $0x8,%ah
  101d44:	0f 30                	wrmsr
  101d46:	8b 5d fc             	mov    -0x4(%ebp),%ebx
  101d49:	c9                   	leave
  101d4a:	c3                   	ret
  101d4b:	2e 8d 74 26 00       	lea    %cs:0x0(%esi,%eiz,1),%esi

00101d50 <enable_apic_software>:
  101d50:	a1 f0 00 e0 fe       	mov    0xfee000f0,%eax
  101d55:	80 cc 01             	or     $0x1,%ah
  101d58:	a3 f0 00 e0 fe       	mov    %eax,0xfee000f0
  101d5d:	a1 f0 00 e0 fe       	mov    0xfee000f0,%eax
  101d62:	0c ff                	or     $0xff,%al
  101d64:	a3 f0 00 e0 fe       	mov    %eax,0xfee000f0
  101d69:	c3                   	ret
  101d6a:	8d b6 00 00 00 00    	lea    0x0(%esi),%esi

00101d70 <ioapic_read>:
  101d70:	55                   	push   %ebp
  101d71:	89 e5                	mov    %esp,%ebp
  101d73:	8b 45 08             	mov    0x8(%ebp),%eax
  101d76:	0f b6 55 0c          	movzbl 0xc(%ebp),%edx
  101d7a:	89 10                	mov    %edx,(%eax)
  101d7c:	8b 40 10             	mov    0x10(%eax),%eax
  101d7f:	5d                   	pop    %ebp
  101d80:	c3                   	ret
  101d81:	2e 8d b4 26 00 00 00 	lea    %cs:0x0(%esi,%eiz,1),%esi
  101d88:	00 
  101d89:	8d b4 26 00 00 00 00 	lea    0x0(%esi,%eiz,1),%esi

00101d90 <ioapic_write>:
  101d90:	55                   	push   %ebp
  101d91:	89 e5                	mov    %esp,%ebp
  101d93:	8b 45 08             	mov    0x8(%ebp),%eax
  101d96:	0f b6 55 0c          	movzbl 0xc(%ebp),%edx
  101d9a:	89 10                	mov    %edx,(%eax)
  101d9c:	8b 55 10             	mov    0x10(%ebp),%edx
  101d9f:	89 50 10             	mov    %edx,0x10(%eax)
  101da2:	5d                   	pop    %ebp
  101da3:	c3                   	ret
  101da4:	2e 8d b4 26 00 00 00 	lea    %cs:0x0(%esi,%eiz,1),%esi
  101dab:	00 
  101dac:	8d 74 26 00          	lea    0x0(%esi,%eiz,1),%esi

00101db0 <get_ioapic_base>:
  101db0:	b9 1b 00 00 00       	mov    $0x1b,%ecx
  101db5:	0f 32                	rdmsr
  101db7:	25 00 f0 ff ff       	and    $0xfffff000,%eax
  101dbc:	c3                   	ret
  101dbd:	8d 76 00             	lea    0x0(%esi),%esi

00101dc0 <disable_pic>:
  101dc0:	55                   	push   %ebp
  101dc1:	89 e5                	mov    %esp,%ebp
  101dc3:	83 ec 10             	sub    $0x10,%esp
  101dc6:	68 b3 62 10 00       	push   $0x1062b3
  101dcb:	6a 04                	push   $0x4
  101dcd:	e8 4e 2c 00 00       	call   104a20 <logf>
  101dd2:	b8 ff ff ff ff       	mov    $0xffffffff,%eax
  101dd7:	e6 21                	out    %al,$0x21
  101dd9:	e6 a1                	out    %al,$0xa1
  101ddb:	58                   	pop    %eax
  101ddc:	5a                   	pop    %edx
  101ddd:	68 c9 62 10 00       	push   $0x1062c9
  101de2:	6a 01                	push   $0x1
  101de4:	e8 37 2c 00 00       	call   104a20 <logf>
  101de9:	83 c4 10             	add    $0x10,%esp
  101dec:	c9                   	leave
  101ded:	c3                   	ret
  101dee:	66 90                	xchg   %ax,%ax

00101df0 <get_local_apic_id>:
  101df0:	a1 20 00 e0 fe       	mov    0xfee00020,%eax
  101df5:	c1 e8 18             	shr    $0x18,%eax
  101df8:	c3                   	ret
  101df9:	8d b4 26 00 00 00 00 	lea    0x0(%esi,%eiz,1),%esi

00101e00 <configure_ioapic_irq_with_flags>:
  101e00:	55                   	push   %ebp
  101e01:	89 e5                	mov    %esp,%ebp
  101e03:	57                   	push   %edi
  101e04:	56                   	push   %esi
  101e05:	53                   	push   %ebx
  101e06:	83 ec 34             	sub    $0x34,%esp
  101e09:	0f b6 45 0c          	movzbl 0xc(%ebp),%eax
  101e0d:	8b 75 18             	mov    0x18(%ebp),%esi
  101e10:	8b 7d 08             	mov    0x8(%ebp),%edi
  101e13:	89 45 e4             	mov    %eax,-0x1c(%ebp)
  101e16:	8d 54 00 10          	lea    0x10(%eax,%eax,1),%edx
  101e1a:	0f b6 45 10          	movzbl 0x10(%ebp),%eax
  101e1e:	8d 5a 01             	lea    0x1(%edx),%ebx
  101e21:	89 55 d0             	mov    %edx,-0x30(%ebp)
  101e24:	89 5d e0             	mov    %ebx,-0x20(%ebp)
  101e27:	89 c3                	mov    %eax,%ebx
  101e29:	80 cf 20             	or     $0x20,%bh
  101e2c:	f7 c6 02 00 00 00    	test   $0x2,%esi
  101e32:	89 45 d4             	mov    %eax,-0x2c(%ebp)
  101e35:	0f 44 d8             	cmove  %eax,%ebx
  101e38:	89 d9                	mov    %ebx,%ecx
  101e3a:	80 cd 80             	or     $0x80,%ch
  101e3d:	f7 c6 08 00 00 00    	test   $0x8,%esi
  101e43:	0f b7 f6             	movzwl %si,%esi
  101e46:	0f 45 d9             	cmovne %ecx,%ebx
  101e49:	0f b6 4d 14          	movzbl 0x14(%ebp),%ecx
  101e4d:	89 ca                	mov    %ecx,%edx
  101e4f:	89 4d d8             	mov    %ecx,-0x28(%ebp)
  101e52:	c1 e2 18             	shl    $0x18,%edx
  101e55:	89 55 dc             	mov    %edx,-0x24(%ebp)
  101e58:	68 de 62 10 00       	push   $0x1062de
  101e5d:	6a 04                	push   $0x4
  101e5f:	e8 bc 2b 00 00       	call   104a20 <logf>
  101e64:	89 34 24             	mov    %esi,(%esp)
  101e67:	ff 75 d8             	push   -0x28(%ebp)
  101e6a:	ff 75 d4             	push   -0x2c(%ebp)
  101e6d:	8b 75 e4             	mov    -0x1c(%ebp),%esi
  101e70:	56                   	push   %esi
  101e71:	68 94 52 10 00       	push   $0x105294
  101e76:	e8 b5 2c 00 00       	call   104b30 <printf>
  101e7b:	0f b6 45 e0          	movzbl -0x20(%ebp),%eax
  101e7f:	8b 55 dc             	mov    -0x24(%ebp),%edx
  101e82:	83 c4 18             	add    $0x18,%esp
  101e85:	89 07                	mov    %eax,(%edi)
  101e87:	0f b6 45 d0          	movzbl -0x30(%ebp),%eax
  101e8b:	89 57 10             	mov    %edx,0x10(%edi)
  101e8e:	89 07                	mov    %eax,(%edi)
  101e90:	89 5f 10             	mov    %ebx,0x10(%edi)
  101e93:	68 f3 62 10 00       	push   $0x1062f3
  101e98:	6a 01                	push   $0x1
  101e9a:	e8 81 2b 00 00       	call   104a20 <logf>
  101e9f:	83 c4 10             	add    $0x10,%esp
  101ea2:	89 75 0c             	mov    %esi,0xc(%ebp)
  101ea5:	c7 45 08 4b 65 10 00 	movl   $0x10654b,0x8(%ebp)
  101eac:	8d 65 f4             	lea    -0xc(%ebp),%esp
  101eaf:	5b                   	pop    %ebx
  101eb0:	5e                   	pop    %esi
  101eb1:	5f                   	pop    %edi
  101eb2:	5d                   	pop    %ebp
  101eb3:	e9 78 2c 00 00       	jmp    104b30 <printf>
  101eb8:	2e 8d b4 26 00 00 00 	lea    %cs:0x0(%esi,%eiz,1),%esi
  101ebf:	00 

00101ec0 <configure_ioapic_irq>:
  101ec0:	55                   	push   %ebp
  101ec1:	89 e5                	mov    %esp,%ebp
  101ec3:	83 ec 14             	sub    $0x14,%esp
  101ec6:	0f b6 45 14          	movzbl 0x14(%ebp),%eax
  101eca:	6a 00                	push   $0x0
  101ecc:	50                   	push   %eax
  101ecd:	0f b6 45 10          	movzbl 0x10(%ebp),%eax
  101ed1:	50                   	push   %eax
  101ed2:	0f b6 45 0c          	movzbl 0xc(%ebp),%eax
  101ed6:	50                   	push   %eax
  101ed7:	ff 75 08             	push   0x8(%ebp)
  101eda:	e8 21 ff ff ff       	call   101e00 <configure_ioapic_irq_with_flags>
  101edf:	83 c4 20             	add    $0x20,%esp
  101ee2:	c9                   	leave
  101ee3:	c3                   	ret
  101ee4:	66 90                	xchg   %ax,%ax
  101ee6:	66 90                	xchg   %ax,%ax
  101ee8:	66 90                	xchg   %ax,%ax
  101eea:	66 90                	xchg   %ax,%ax
  101eec:	66 90                	xchg   %ax,%ax
  101eee:	66 90                	xchg   %ax,%ax

00101ef0 <halt_without_apic>:
  101ef0:	b8 01 00 00 00       	mov    $0x1,%eax
  101ef5:	0f a2                	cpuid
  101ef7:	f7 c2 00 02 00 00    	test   $0x200,%edx
  101efd:	74 01                	je     101f00 <halt>
  101eff:	c3                   	ret

00101f00 <halt>:
  101f00:	fa                   	cli
  101f01:	f4                   	hlt
  101f02:	66 90                	xchg   %ax,%ax
  101f04:	66 90                	xchg   %ax,%ax
  101f06:	66 90                	xchg   %ax,%ax
  101f08:	66 90                	xchg   %ax,%ax
  101f0a:	66 90                	xchg   %ax,%ax
  101f0c:	66 90                	xchg   %ax,%ax
  101f0e:	66 90                	xchg   %ax,%ax

00101f10 <validate_rsdp_checksum>:
  101f10:	55                   	push   %ebp
  101f11:	89 e5                	mov    %esp,%ebp
  101f13:	56                   	push   %esi
  101f14:	8b 75 08             	mov    0x8(%ebp),%esi
  101f17:	53                   	push   %ebx
  101f18:	85 f6                	test   %esi,%esi
  101f1a:	74 5c                	je     101f78 <validate_rsdp_checksum+0x68>
  101f1c:	89 f3                	mov    %esi,%ebx
  101f1e:	8d 4e 14             	lea    0x14(%esi),%ecx
  101f21:	89 f0                	mov    %esi,%eax
  101f23:	31 d2                	xor    %edx,%edx
  101f25:	2e 8d b4 26 00 00 00 	lea    %cs:0x0(%esi,%eiz,1),%esi
  101f2c:	00 
  101f2d:	8d 76 00             	lea    0x0(%esi),%esi
  101f30:	02 10                	add    (%eax),%dl
  101f32:	83 c0 01             	add    $0x1,%eax
  101f35:	39 c8                	cmp    %ecx,%eax
  101f37:	75 f7                	jne    101f30 <validate_rsdp_checksum+0x20>
  101f39:	b8 02 00 00 00       	mov    $0x2,%eax
  101f3e:	84 d2                	test   %dl,%dl
  101f40:	75 2e                	jne    101f70 <validate_rsdp_checksum+0x60>
  101f42:	31 c0                	xor    %eax,%eax
  101f44:	80 7e 0f 01          	cmpb   $0x1,0xf(%esi)
  101f48:	76 26                	jbe    101f70 <validate_rsdp_checksum+0x60>
  101f4a:	8b 4e 14             	mov    0x14(%esi),%ecx
  101f4d:	85 c9                	test   %ecx,%ecx
  101f4f:	74 1f                	je     101f70 <validate_rsdp_checksum+0x60>
  101f51:	01 ce                	add    %ecx,%esi
  101f53:	2e 8d b4 26 00 00 00 	lea    %cs:0x0(%esi,%eiz,1),%esi
  101f5a:	00 
  101f5b:	2e 8d 74 26 00       	lea    %cs:0x0(%esi,%eiz,1),%esi
  101f60:	02 13                	add    (%ebx),%dl
  101f62:	83 c3 01             	add    $0x1,%ebx
  101f65:	39 f3                	cmp    %esi,%ebx
  101f67:	75 f7                	jne    101f60 <validate_rsdp_checksum+0x50>
  101f69:	f6 da                	neg    %dl
  101f6b:	19 c0                	sbb    %eax,%eax
  101f6d:	83 e0 03             	and    $0x3,%eax
  101f70:	5b                   	pop    %ebx
  101f71:	5e                   	pop    %esi
  101f72:	5d                   	pop    %ebp
  101f73:	c3                   	ret
  101f74:	8d 74 26 00          	lea    0x0(%esi,%eiz,1),%esi
  101f78:	5b                   	pop    %ebx
  101f79:	b8 01 00 00 00       	mov    $0x1,%eax
  101f7e:	5e                   	pop    %esi
  101f7f:	5d                   	pop    %ebp
  101f80:	c3                   	ret
  101f81:	2e 8d b4 26 00 00 00 	lea    %cs:0x0(%esi,%eiz,1),%esi
  101f88:	00 
  101f89:	8d b4 26 00 00 00 00 	lea    0x0(%esi,%eiz,1),%esi

00101f90 <find_rsdp>:
  101f90:	55                   	push   %ebp
  101f91:	89 e5                	mov    %esp,%ebp
  101f93:	56                   	push   %esi
  101f94:	53                   	push   %ebx
  101f95:	0f b7 1d 0e 04 00 00 	movzwl 0x40e,%ebx
  101f9c:	c1 e3 04             	shl    $0x4,%ebx
  101f9f:	8d b3 00 04 00 00    	lea    0x400(%ebx),%esi
  101fa5:	39 f3                	cmp    %esi,%ebx
  101fa7:	72 0e                	jb     101fb7 <find_rsdp+0x27>
  101fa9:	eb 45                	jmp    101ff0 <find_rsdp+0x60>
  101fab:	2e 8d 74 26 00       	lea    %cs:0x0(%esi,%eiz,1),%esi
  101fb0:	83 c3 10             	add    $0x10,%ebx
  101fb3:	39 f3                	cmp    %esi,%ebx
  101fb5:	73 39                	jae    101ff0 <find_rsdp+0x60>
  101fb7:	83 ec 04             	sub    $0x4,%esp
  101fba:	6a 08                	push   $0x8
  101fbc:	68 0b 63 10 00       	push   $0x10630b
  101fc1:	53                   	push   %ebx
  101fc2:	e8 39 08 00 00       	call   102800 <strncmp>
  101fc7:	83 c4 10             	add    $0x10,%esp
  101fca:	85 c0                	test   %eax,%eax
  101fcc:	75 e2                	jne    101fb0 <find_rsdp+0x20>
  101fce:	83 ec 0c             	sub    $0xc,%esp
  101fd1:	53                   	push   %ebx
  101fd2:	e8 39 ff ff ff       	call   101f10 <validate_rsdp_checksum>
  101fd7:	83 c4 10             	add    $0x10,%esp
  101fda:	85 c0                	test   %eax,%eax
  101fdc:	75 d2                	jne    101fb0 <find_rsdp+0x20>
  101fde:	8d 65 f8             	lea    -0x8(%ebp),%esp
  101fe1:	89 d8                	mov    %ebx,%eax
  101fe3:	5b                   	pop    %ebx
  101fe4:	5e                   	pop    %esi
  101fe5:	5d                   	pop    %ebp
  101fe6:	c3                   	ret
  101fe7:	2e 8d b4 26 00 00 00 	lea    %cs:0x0(%esi,%eiz,1),%esi
  101fee:	00 
  101fef:	90                   	nop
  101ff0:	bb 00 00 0e 00       	mov    $0xe0000,%ebx
  101ff5:	eb 14                	jmp    10200b <find_rsdp+0x7b>
  101ff7:	2e 8d b4 26 00 00 00 	lea    %cs:0x0(%esi,%eiz,1),%esi
  101ffe:	00 
  101fff:	90                   	nop
  102000:	83 c3 10             	add    $0x10,%ebx
  102003:	81 fb 00 00 10 00    	cmp    $0x100000,%ebx
  102009:	74 30                	je     10203b <find_rsdp+0xab>
  10200b:	83 ec 04             	sub    $0x4,%esp
  10200e:	6a 08                	push   $0x8
  102010:	68 0b 63 10 00       	push   $0x10630b
  102015:	53                   	push   %ebx
  102016:	e8 e5 07 00 00       	call   102800 <strncmp>
  10201b:	83 c4 10             	add    $0x10,%esp
  10201e:	85 c0                	test   %eax,%eax
  102020:	75 de                	jne    102000 <find_rsdp+0x70>
  102022:	83 ec 0c             	sub    $0xc,%esp
  102025:	53                   	push   %ebx
  102026:	e8 e5 fe ff ff       	call   101f10 <validate_rsdp_checksum>
  10202b:	83 c4 10             	add    $0x10,%esp
  10202e:	85 c0                	test   %eax,%eax
  102030:	75 ce                	jne    102000 <find_rsdp+0x70>
  102032:	8d 65 f8             	lea    -0x8(%ebp),%esp
  102035:	89 d8                	mov    %ebx,%eax
  102037:	5b                   	pop    %ebx
  102038:	5e                   	pop    %esi
  102039:	5d                   	pop    %ebp
  10203a:	c3                   	ret
  10203b:	31 db                	xor    %ebx,%ebx
  10203d:	eb 9f                	jmp    101fde <find_rsdp+0x4e>
  10203f:	90                   	nop

00102040 <find_madt>:
  102040:	55                   	push   %ebp
  102041:	89 e5                	mov    %esp,%ebp
  102043:	57                   	push   %edi
  102044:	56                   	push   %esi
  102045:	53                   	push   %ebx
  102046:	83 ec 1c             	sub    $0x1c,%esp
  102049:	8b 5d 08             	mov    0x8(%ebp),%ebx
  10204c:	85 db                	test   %ebx,%ebx
  10204e:	0f 84 ed 00 00 00    	je     102141 <find_madt+0x101>
  102054:	0f b6 43 0f          	movzbl 0xf(%ebx),%eax
  102058:	83 ec 08             	sub    $0x8,%esp
  10205b:	50                   	push   %eax
  10205c:	68 c0 52 10 00       	push   $0x1052c0
  102061:	e8 ca 2a 00 00       	call   104b30 <printf>
  102066:	83 c4 10             	add    $0x10,%esp
  102069:	80 7b 0f 01          	cmpb   $0x1,0xf(%ebx)
  10206d:	0f 86 dd 00 00 00    	jbe    102150 <find_madt+0x110>
  102073:	83 ec 04             	sub    $0x4,%esp
  102076:	ff 73 18             	push   0x18(%ebx)
  102079:	ff 73 1c             	push   0x1c(%ebx)
  10207c:	68 e8 52 10 00       	push   $0x1052e8
  102081:	e8 aa 2a 00 00       	call   104b30 <printf>
  102086:	8b 73 1c             	mov    0x1c(%ebx),%esi
  102089:	8b 7b 18             	mov    0x18(%ebx),%edi
  10208c:	83 c4 10             	add    $0x10,%esp
  10208f:	85 f6                	test   %esi,%esi
  102091:	0f 85 c9 01 00 00    	jne    102260 <find_madt+0x220>
  102097:	83 ec 08             	sub    $0x8,%esp
  10209a:	57                   	push   %edi
  10209b:	68 44 53 10 00       	push   $0x105344
  1020a0:	e8 8b 2a 00 00       	call   104b30 <printf>
  1020a5:	8b 47 04             	mov    0x4(%edi),%eax
  1020a8:	8d 70 dc             	lea    -0x24(%eax),%esi
  1020ab:	c1 ee 03             	shr    $0x3,%esi
  1020ae:	89 75 e0             	mov    %esi,-0x20(%ebp)
  1020b1:	59                   	pop    %ecx
  1020b2:	5b                   	pop    %ebx
  1020b3:	56                   	push   %esi
  1020b4:	68 70 53 10 00       	push   $0x105370
  1020b9:	e8 72 2a 00 00       	call   104b30 <printf>
  1020be:	83 c4 10             	add    $0x10,%esp
  1020c1:	85 f6                	test   %esi,%esi
  1020c3:	74 7c                	je     102141 <find_madt+0x101>
  1020c5:	31 db                	xor    %ebx,%ebx
  1020c7:	eb 3c                	jmp    102105 <find_madt+0xc5>
  1020c9:	8d b4 26 00 00 00 00 	lea    0x0(%esi,%eiz,1),%esi
  1020d0:	6a 01                	push   $0x1
  1020d2:	6a 01                	push   $0x1
  1020d4:	68 00 10 00 00       	push   $0x1000
  1020d9:	56                   	push   %esi
  1020da:	e8 61 f8 ff ff       	call   101940 <map_physical_range>
  1020df:	83 c4 0c             	add    $0xc,%esp
  1020e2:	6a 04                	push   $0x4
  1020e4:	68 14 63 10 00       	push   $0x106314
  1020e9:	56                   	push   %esi
  1020ea:	89 75 e4             	mov    %esi,-0x1c(%ebp)
  1020ed:	e8 0e 07 00 00       	call   102800 <strncmp>
  1020f2:	83 c4 10             	add    $0x10,%esp
  1020f5:	85 c0                	test   %eax,%eax
  1020f7:	0f 84 43 01 00 00    	je     102240 <find_madt+0x200>
  1020fd:	83 c3 01             	add    $0x1,%ebx
  102100:	39 5d e0             	cmp    %ebx,-0x20(%ebp)
  102103:	74 3c                	je     102141 <find_madt+0x101>
  102105:	8b 74 df 24          	mov    0x24(%edi,%ebx,8),%esi
  102109:	83 ec 04             	sub    $0x4,%esp
  10210c:	56                   	push   %esi
  10210d:	53                   	push   %ebx
  10210e:	68 98 53 10 00       	push   $0x105398
  102113:	e8 18 2a 00 00       	call   104b30 <printf>
  102118:	8d 86 00 f0 ff ff    	lea    -0x1000(%esi),%eax
  10211e:	83 c4 10             	add    $0x10,%esp
  102121:	3d ff ef ff 3f       	cmp    $0x3fffefff,%eax
  102126:	76 a8                	jbe    1020d0 <find_madt+0x90>
  102128:	83 ec 08             	sub    $0x8,%esp
  10212b:	83 c3 01             	add    $0x1,%ebx
  10212e:	56                   	push   %esi
  10212f:	68 d0 53 10 00       	push   $0x1053d0
  102134:	e8 f7 29 00 00       	call   104b30 <printf>
  102139:	83 c4 10             	add    $0x10,%esp
  10213c:	39 5d e0             	cmp    %ebx,-0x20(%ebp)
  10213f:	75 c4                	jne    102105 <find_madt+0xc5>
  102141:	8d 65 f4             	lea    -0xc(%ebp),%esp
  102144:	31 d2                	xor    %edx,%edx
  102146:	5b                   	pop    %ebx
  102147:	89 d0                	mov    %edx,%eax
  102149:	5e                   	pop    %esi
  10214a:	5f                   	pop    %edi
  10214b:	5d                   	pop    %ebp
  10214c:	c3                   	ret
  10214d:	8d 76 00             	lea    0x0(%esi),%esi
  102150:	83 ec 08             	sub    $0x8,%esp
  102153:	ff 73 10             	push   0x10(%ebx)
  102156:	68 3c 54 10 00       	push   $0x10543c
  10215b:	e8 d0 29 00 00       	call   104b30 <printf>
  102160:	8b 43 10             	mov    0x10(%ebx),%eax
  102163:	83 c4 10             	add    $0x10,%esp
  102166:	8d 90 00 f0 ff ff    	lea    -0x1000(%eax),%edx
  10216c:	81 fa ff ef ff 3f    	cmp    $0x3fffefff,%edx
  102172:	0f 87 00 01 00 00    	ja     102278 <find_madt+0x238>
  102178:	83 ec 08             	sub    $0x8,%esp
  10217b:	50                   	push   %eax
  10217c:	68 88 54 10 00       	push   $0x105488
  102181:	e8 aa 29 00 00       	call   104b30 <printf>
  102186:	6a 01                	push   $0x1
  102188:	6a 01                	push   $0x1
  10218a:	68 00 10 00 00       	push   $0x1000
  10218f:	ff 73 10             	push   0x10(%ebx)
  102192:	e8 a9 f7 ff ff       	call   101940 <map_physical_range>
  102197:	8b 73 10             	mov    0x10(%ebx),%esi
  10219a:	83 c4 18             	add    $0x18,%esp
  10219d:	56                   	push   %esi
  10219e:	68 b4 54 10 00       	push   $0x1054b4
  1021a3:	e8 88 29 00 00       	call   104b30 <printf>
  1021a8:	8b 46 04             	mov    0x4(%esi),%eax
  1021ab:	8d 58 dc             	lea    -0x24(%eax),%ebx
  1021ae:	c1 eb 02             	shr    $0x2,%ebx
  1021b1:	89 5d e0             	mov    %ebx,-0x20(%ebp)
  1021b4:	58                   	pop    %eax
  1021b5:	5a                   	pop    %edx
  1021b6:	53                   	push   %ebx
  1021b7:	68 e0 54 10 00       	push   $0x1054e0
  1021bc:	e8 6f 29 00 00       	call   104b30 <printf>
  1021c1:	83 c4 10             	add    $0x10,%esp
  1021c4:	85 db                	test   %ebx,%ebx
  1021c6:	0f 84 75 ff ff ff    	je     102141 <find_madt+0x101>
  1021cc:	31 ff                	xor    %edi,%edi
  1021ce:	eb 35                	jmp    102205 <find_madt+0x1c5>
  1021d0:	6a 01                	push   $0x1
  1021d2:	6a 01                	push   $0x1
  1021d4:	68 00 10 00 00       	push   $0x1000
  1021d9:	53                   	push   %ebx
  1021da:	e8 61 f7 ff ff       	call   101940 <map_physical_range>
  1021df:	83 c4 0c             	add    $0xc,%esp
  1021e2:	6a 04                	push   $0x4
  1021e4:	68 14 63 10 00       	push   $0x106314
  1021e9:	53                   	push   %ebx
  1021ea:	89 5d e4             	mov    %ebx,-0x1c(%ebp)
  1021ed:	e8 0e 06 00 00       	call   102800 <strncmp>
  1021f2:	83 c4 10             	add    $0x10,%esp
  1021f5:	85 c0                	test   %eax,%eax
  1021f7:	74 47                	je     102240 <find_madt+0x200>
  1021f9:	83 c7 01             	add    $0x1,%edi
  1021fc:	39 7d e0             	cmp    %edi,-0x20(%ebp)
  1021ff:	0f 84 3c ff ff ff    	je     102141 <find_madt+0x101>
  102205:	8b 5c be 24          	mov    0x24(%esi,%edi,4),%ebx
  102209:	83 ec 04             	sub    $0x4,%esp
  10220c:	53                   	push   %ebx
  10220d:	57                   	push   %edi
  10220e:	68 98 53 10 00       	push   $0x105398
  102213:	e8 18 29 00 00       	call   104b30 <printf>
  102218:	8d 83 00 f0 ff ff    	lea    -0x1000(%ebx),%eax
  10221e:	83 c4 10             	add    $0x10,%esp
  102221:	3d ff ef ff 3f       	cmp    $0x3fffefff,%eax
  102226:	76 a8                	jbe    1021d0 <find_madt+0x190>
  102228:	83 ec 08             	sub    $0x8,%esp
  10222b:	53                   	push   %ebx
  10222c:	68 d0 53 10 00       	push   $0x1053d0
  102231:	e8 fa 28 00 00       	call   104b30 <printf>
  102236:	83 c4 10             	add    $0x10,%esp
  102239:	eb be                	jmp    1021f9 <find_madt+0x1b9>
  10223b:	2e 8d 74 26 00       	lea    %cs:0x0(%esi,%eiz,1),%esi
  102240:	83 ec 0c             	sub    $0xc,%esp
  102243:	68 14 54 10 00       	push   $0x105414
  102248:	e8 e3 28 00 00       	call   104b30 <printf>
  10224d:	8b 55 e4             	mov    -0x1c(%ebp),%edx
  102250:	83 c4 10             	add    $0x10,%esp
  102253:	8d 65 f4             	lea    -0xc(%ebp),%esp
  102256:	5b                   	pop    %ebx
  102257:	5e                   	pop    %esi
  102258:	89 d0                	mov    %edx,%eax
  10225a:	5f                   	pop    %edi
  10225b:	5d                   	pop    %ebp
  10225c:	c3                   	ret
  10225d:	8d 76 00             	lea    0x0(%esi),%esi
  102260:	83 ec 0c             	sub    $0xc,%esp
  102263:	68 14 53 10 00       	push   $0x105314
  102268:	e8 c3 28 00 00       	call   104b30 <printf>
  10226d:	83 c4 10             	add    $0x10,%esp
  102270:	e9 cc fe ff ff       	jmp    102141 <find_madt+0x101>
  102275:	8d 76 00             	lea    0x0(%esi),%esi
  102278:	83 ec 08             	sub    $0x8,%esp
  10227b:	50                   	push   %eax
  10227c:	68 64 54 10 00       	push   $0x105464
  102281:	e8 aa 28 00 00       	call   104b30 <printf>
  102286:	83 c4 10             	add    $0x10,%esp
  102289:	e9 b3 fe ff ff       	jmp    102141 <find_madt+0x101>
  10228e:	66 90                	xchg   %ax,%ax

00102290 <initialize_apic>:
  102290:	55                   	push   %ebp
  102291:	89 e5                	mov    %esp,%ebp
  102293:	53                   	push   %ebx
  102294:	83 ec 10             	sub    $0x10,%esp
  102297:	68 08 55 10 00       	push   $0x105508
  10229c:	e8 8f 28 00 00       	call   104b30 <printf>
  1022a1:	c7 04 24 44 55 10 00 	movl   $0x105544,(%esp)
  1022a8:	e8 83 28 00 00       	call   104b30 <printf>
  1022ad:	e8 de fc ff ff       	call   101f90 <find_rsdp>
  1022b2:	83 c4 10             	add    $0x10,%esp
  1022b5:	85 c0                	test   %eax,%eax
  1022b7:	0f 84 1b 01 00 00    	je     1023d8 <initialize_apic+0x148>
  1022bd:	83 ec 08             	sub    $0x8,%esp
  1022c0:	89 c3                	mov    %eax,%ebx
  1022c2:	50                   	push   %eax
  1022c3:	68 70 55 10 00       	push   $0x105570
  1022c8:	e8 63 28 00 00       	call   104b30 <printf>
  1022cd:	c7 04 24 a0 55 10 00 	movl   $0x1055a0,(%esp)
  1022d4:	e8 57 28 00 00       	call   104b30 <printf>
  1022d9:	89 1c 24             	mov    %ebx,(%esp)
  1022dc:	e8 2f fc ff ff       	call   101f10 <validate_rsdp_checksum>
  1022e1:	83 c4 10             	add    $0x10,%esp
  1022e4:	85 c0                	test   %eax,%eax
  1022e6:	0f 85 b4 00 00 00    	jne    1023a0 <initialize_apic+0x110>
  1022ec:	83 ec 0c             	sub    $0xc,%esp
  1022ef:	68 04 56 10 00       	push   $0x105604
  1022f4:	e8 37 28 00 00       	call   104b30 <printf>
  1022f9:	c7 04 24 30 56 10 00 	movl   $0x105630,(%esp)
  102300:	e8 2b 28 00 00       	call   104b30 <printf>
  102305:	89 1c 24             	mov    %ebx,(%esp)
  102308:	e8 33 fd ff ff       	call   102040 <find_madt>
  10230d:	83 c4 10             	add    $0x10,%esp
  102310:	89 c3                	mov    %eax,%ebx
  102312:	85 c0                	test   %eax,%eax
  102314:	0f 84 a6 00 00 00    	je     1023c0 <initialize_apic+0x130>
  10231a:	83 ec 08             	sub    $0x8,%esp
  10231d:	50                   	push   %eax
  10231e:	68 60 56 10 00       	push   $0x105660
  102323:	e8 08 28 00 00       	call   104b30 <printf>
  102328:	c7 04 24 90 56 10 00 	movl   $0x105690,(%esp)
  10232f:	e8 fc 27 00 00       	call   104b30 <printf>
  102334:	89 1c 24             	mov    %ebx,(%esp)
  102337:	e8 b4 00 00 00       	call   1023f0 <parse_madt>
  10233c:	c7 04 24 bc 56 10 00 	movl   $0x1056bc,(%esp)
  102343:	e8 e8 27 00 00       	call   104b30 <printf>
  102348:	e8 63 02 00 00       	call   1025b0 <get_ioapic_address>
  10234d:	5a                   	pop    %edx
  10234e:	59                   	pop    %ecx
  10234f:	50                   	push   %eax
  102350:	68 e8 56 10 00       	push   $0x1056e8
  102355:	e8 d6 27 00 00       	call   104b30 <printf>
  10235a:	e8 61 02 00 00       	call   1025c0 <get_ioapic_id>
  10235f:	5b                   	pop    %ebx
  102360:	5a                   	pop    %edx
  102361:	0f b6 c0             	movzbl %al,%eax
  102364:	50                   	push   %eax
  102365:	68 14 57 10 00       	push   $0x105714
  10236a:	e8 c1 27 00 00       	call   104b30 <printf>
  10236f:	e8 ac 02 00 00       	call   102620 <get_keyboard_irq_flags>
  102374:	0f b7 d8             	movzwl %ax,%ebx
  102377:	e8 54 02 00 00       	call   1025d0 <get_keyboard_global_irq>
  10237c:	83 c4 0c             	add    $0xc,%esp
  10237f:	53                   	push   %ebx
  102380:	50                   	push   %eax
  102381:	68 38 57 10 00       	push   $0x105738
  102386:	e8 a5 27 00 00       	call   104b30 <printf>
  10238b:	c7 04 24 6c 57 10 00 	movl   $0x10576c,(%esp)
  102392:	e8 99 27 00 00       	call   104b30 <printf>
  102397:	83 c4 10             	add    $0x10,%esp
  10239a:	8b 5d fc             	mov    -0x4(%ebp),%ebx
  10239d:	c9                   	leave
  10239e:	c3                   	ret
  10239f:	90                   	nop
  1023a0:	83 ec 08             	sub    $0x8,%esp
  1023a3:	50                   	push   %eax
  1023a4:	68 d0 55 10 00       	push   $0x1055d0
  1023a9:	e8 82 27 00 00       	call   104b30 <printf>
  1023ae:	8b 5d fc             	mov    -0x4(%ebp),%ebx
  1023b1:	83 c4 10             	add    $0x10,%esp
  1023b4:	c9                   	leave
  1023b5:	c3                   	ret
  1023b6:	2e 8d b4 26 00 00 00 	lea    %cs:0x0(%esi,%eiz,1),%esi
  1023bd:	00 
  1023be:	66 90                	xchg   %ax,%ax
  1023c0:	83 ec 0c             	sub    $0xc,%esp
  1023c3:	68 31 63 10 00       	push   $0x106331
  1023c8:	e8 63 27 00 00       	call   104b30 <printf>
  1023cd:	83 c4 10             	add    $0x10,%esp
  1023d0:	eb c8                	jmp    10239a <initialize_apic+0x10a>
  1023d2:	8d b6 00 00 00 00    	lea    0x0(%esi),%esi
  1023d8:	83 ec 0c             	sub    $0xc,%esp
  1023db:	68 19 63 10 00       	push   $0x106319
  1023e0:	e8 4b 27 00 00       	call   104b30 <printf>
  1023e5:	8b 5d fc             	mov    -0x4(%ebp),%ebx
  1023e8:	83 c4 10             	add    $0x10,%esp
  1023eb:	c9                   	leave
  1023ec:	c3                   	ret
  1023ed:	66 90                	xchg   %ax,%ax
  1023ef:	90                   	nop

001023f0 <parse_madt>:
  1023f0:	55                   	push   %ebp
  1023f1:	89 e5                	mov    %esp,%ebp
  1023f3:	57                   	push   %edi
  1023f4:	56                   	push   %esi
  1023f5:	53                   	push   %ebx
  1023f6:	83 ec 1c             	sub    $0x1c,%esp
  1023f9:	8b 7d 08             	mov    0x8(%ebp),%edi
  1023fc:	6a 01                	push   $0x1
  1023fe:	6a 01                	push   $0x1
  102400:	8d 5f 2c             	lea    0x2c(%edi),%ebx
  102403:	68 00 40 00 00       	push   $0x4000
  102408:	57                   	push   %edi
  102409:	e8 32 f5 ff ff       	call   101940 <map_physical_range>
  10240e:	03 7f 04             	add    0x4(%edi),%edi
  102411:	83 c4 10             	add    $0x10,%esp
  102414:	39 fb                	cmp    %edi,%ebx
  102416:	73 43                	jae    10245b <parse_madt+0x6b>
  102418:	2e 8d b4 26 00 00 00 	lea    %cs:0x0(%esi,%eiz,1),%esi
  10241f:	00 
  102420:	0f b6 03             	movzbl (%ebx),%eax
  102423:	0f b6 73 01          	movzbl 0x1(%ebx),%esi
  102427:	3c 09                	cmp    $0x9,%al
  102429:	77 0d                	ja     102438 <parse_madt+0x48>
  10242b:	0f b6 d0             	movzbl %al,%edx
  10242e:	ff 24 95 00 50 10 00 	jmp    *0x105000(,%edx,4)
  102435:	8d 76 00             	lea    0x0(%esi),%esi
  102438:	83 ec 08             	sub    $0x8,%esp
  10243b:	0f be c0             	movsbl %al,%eax
  10243e:	50                   	push   %eax
  10243f:	68 84 59 10 00       	push   $0x105984
  102444:	e8 e7 26 00 00       	call   104b30 <printf>
  102449:	83 c4 10             	add    $0x10,%esp
  10244c:	8d 74 26 00          	lea    0x0(%esi,%eiz,1),%esi
  102450:	89 f0                	mov    %esi,%eax
  102452:	0f b6 f0             	movzbl %al,%esi
  102455:	01 f3                	add    %esi,%ebx
  102457:	39 fb                	cmp    %edi,%ebx
  102459:	72 c5                	jb     102420 <parse_madt+0x30>
  10245b:	8d 65 f4             	lea    -0xc(%ebp),%esp
  10245e:	5b                   	pop    %ebx
  10245f:	5e                   	pop    %esi
  102460:	5f                   	pop    %edi
  102461:	5d                   	pop    %ebp
  102462:	c3                   	ret
  102463:	2e 8d 74 26 00       	lea    %cs:0x0(%esi,%eiz,1),%esi
  102468:	ff 73 0c             	push   0xc(%ebx)
  10246b:	ff 73 08             	push   0x8(%ebx)
  10246e:	ff 73 04             	push   0x4(%ebx)
  102471:	68 40 59 10 00       	push   $0x105940
  102476:	e8 b5 26 00 00       	call   104b30 <printf>
  10247b:	83 c4 10             	add    $0x10,%esp
  10247e:	eb d0                	jmp    102450 <parse_madt+0x60>
  102480:	83 ec 04             	sub    $0x4,%esp
  102483:	ff 73 04             	push   0x4(%ebx)
  102486:	ff 73 08             	push   0x8(%ebx)
  102489:	68 04 59 10 00       	push   $0x105904
  10248e:	e8 9d 26 00 00       	call   104b30 <printf>
  102493:	83 c4 10             	add    $0x10,%esp
  102496:	eb b8                	jmp    102450 <parse_madt+0x60>
  102498:	2e 8d b4 26 00 00 00 	lea    %cs:0x0(%esi,%eiz,1),%esi
  10249f:	00 
  1024a0:	0f be 43 05          	movsbl 0x5(%ebx),%eax
  1024a4:	83 ec 04             	sub    $0x4,%esp
  1024a7:	50                   	push   %eax
  1024a8:	0f be 43 02          	movsbl 0x2(%ebx),%eax
  1024ac:	50                   	push   %eax
  1024ad:	68 c4 58 10 00       	push   $0x1058c4
  1024b2:	e8 79 26 00 00       	call   104b30 <printf>
  1024b7:	83 c4 10             	add    $0x10,%esp
  1024ba:	eb 94                	jmp    102450 <parse_madt+0x60>
  1024bc:	8d 74 26 00          	lea    0x0(%esi,%eiz,1),%esi
  1024c0:	83 ec 04             	sub    $0x4,%esp
  1024c3:	ff 73 06             	push   0x6(%ebx)
  1024c6:	0f be 43 02          	movsbl 0x2(%ebx),%eax
  1024ca:	50                   	push   %eax
  1024cb:	68 88 58 10 00       	push   $0x105888
  1024d0:	e8 5b 26 00 00       	call   104b30 <printf>
  1024d5:	83 c4 10             	add    $0x10,%esp
  1024d8:	e9 73 ff ff ff       	jmp    102450 <parse_madt+0x60>
  1024dd:	8d 76 00             	lea    0x0(%esi),%esi
  1024e0:	0f b7 43 08          	movzwl 0x8(%ebx),%eax
  1024e4:	83 ec 0c             	sub    $0xc,%esp
  1024e7:	66 89 45 e6          	mov    %ax,-0x1a(%ebp)
  1024eb:	50                   	push   %eax
  1024ec:	ff 73 04             	push   0x4(%ebx)
  1024ef:	0f be 43 03          	movsbl 0x3(%ebx),%eax
  1024f3:	50                   	push   %eax
  1024f4:	0f be 43 02          	movsbl 0x2(%ebx),%eax
  1024f8:	50                   	push   %eax
  1024f9:	68 30 58 10 00       	push   $0x105830
  1024fe:	e8 2d 26 00 00       	call   104b30 <printf>
  102503:	a1 00 d5 10 00       	mov    0x10d500,%eax
  102508:	83 c4 20             	add    $0x20,%esp
  10250b:	83 f8 0f             	cmp    $0xf,%eax
  10250e:	0f 8f 3c ff ff ff    	jg     102450 <parse_madt+0x60>
  102514:	8d 0c 40             	lea    (%eax,%eax,2),%ecx
  102517:	83 c0 01             	add    $0x1,%eax
  10251a:	8d 14 8d 20 d5 10 00 	lea    0x10d520(,%ecx,4),%edx
  102521:	a3 00 d5 10 00       	mov    %eax,0x10d500
  102526:	89 55 e0             	mov    %edx,-0x20(%ebp)
  102529:	0f b6 53 03          	movzbl 0x3(%ebx),%edx
  10252d:	88 14 8d 20 d5 10 00 	mov    %dl,0x10d520(,%ecx,4)
  102534:	8b 4b 04             	mov    0x4(%ebx),%ecx
  102537:	8b 55 e0             	mov    -0x20(%ebp),%edx
  10253a:	89 4a 04             	mov    %ecx,0x4(%edx)
  10253d:	0f b7 4d e6          	movzwl -0x1a(%ebp),%ecx
  102541:	66 89 4a 08          	mov    %cx,0x8(%edx)
  102545:	e9 06 ff ff ff       	jmp    102450 <parse_madt+0x60>
  10254a:	8d b6 00 00 00 00    	lea    0x0(%esi),%esi
  102550:	ff 73 08             	push   0x8(%ebx)
  102553:	ff 73 04             	push   0x4(%ebx)
  102556:	0f be 43 02          	movsbl 0x2(%ebx),%eax
  10255a:	50                   	push   %eax
  10255b:	68 f0 57 10 00       	push   $0x1057f0
  102560:	e8 cb 25 00 00       	call   104b30 <printf>
  102565:	a1 e4 d5 10 00       	mov    0x10d5e4,%eax
  10256a:	83 c4 10             	add    $0x10,%esp
  10256d:	85 c0                	test   %eax,%eax
  10256f:	0f 85 db fe ff ff    	jne    102450 <parse_madt+0x60>
  102575:	8b 43 04             	mov    0x4(%ebx),%eax
  102578:	a3 e4 d5 10 00       	mov    %eax,0x10d5e4
  10257d:	0f b6 43 02          	movzbl 0x2(%ebx),%eax
  102581:	a2 e0 d5 10 00       	mov    %al,0x10d5e0
  102586:	e9 c5 fe ff ff       	jmp    102450 <parse_madt+0x60>
  10258b:	2e 8d 74 26 00       	lea    %cs:0x0(%esi,%eiz,1),%esi
  102590:	ff 73 04             	push   0x4(%ebx)
  102593:	0f be 43 03          	movsbl 0x3(%ebx),%eax
  102597:	50                   	push   %eax
  102598:	0f be 43 02          	movsbl 0x2(%ebx),%eax
  10259c:	50                   	push   %eax
  10259d:	68 a4 57 10 00       	push   $0x1057a4
  1025a2:	e8 89 25 00 00       	call   104b30 <printf>
  1025a7:	83 c4 10             	add    $0x10,%esp
  1025aa:	e9 a1 fe ff ff       	jmp    102450 <parse_madt+0x60>
  1025af:	90                   	nop

001025b0 <get_ioapic_address>:
  1025b0:	a1 e4 d5 10 00       	mov    0x10d5e4,%eax
  1025b5:	c3                   	ret
  1025b6:	2e 8d b4 26 00 00 00 	lea    %cs:0x0(%esi,%eiz,1),%esi
  1025bd:	00 
  1025be:	66 90                	xchg   %ax,%ax

001025c0 <get_ioapic_id>:
  1025c0:	0f b6 05 e0 d5 10 00 	movzbl 0x10d5e0,%eax
  1025c7:	c3                   	ret
  1025c8:	2e 8d b4 26 00 00 00 	lea    %cs:0x0(%esi,%eiz,1),%esi
  1025cf:	00 

001025d0 <get_keyboard_global_irq>:
  1025d0:	8b 0d 00 d5 10 00    	mov    0x10d500,%ecx
  1025d6:	85 c9                	test   %ecx,%ecx
  1025d8:	7e 36                	jle    102610 <get_keyboard_global_irq+0x40>
  1025da:	ba 20 d5 10 00       	mov    $0x10d520,%edx
  1025df:	31 c0                	xor    %eax,%eax
  1025e1:	eb 17                	jmp    1025fa <get_keyboard_global_irq+0x2a>
  1025e3:	2e 8d b4 26 00 00 00 	lea    %cs:0x0(%esi,%eiz,1),%esi
  1025ea:	00 
  1025eb:	2e 8d 74 26 00       	lea    %cs:0x0(%esi,%eiz,1),%esi
  1025f0:	83 c0 01             	add    $0x1,%eax
  1025f3:	83 c2 0c             	add    $0xc,%edx
  1025f6:	39 c8                	cmp    %ecx,%eax
  1025f8:	74 16                	je     102610 <get_keyboard_global_irq+0x40>
  1025fa:	80 3a 01             	cmpb   $0x1,(%edx)
  1025fd:	75 f1                	jne    1025f0 <get_keyboard_global_irq+0x20>
  1025ff:	8d 04 40             	lea    (%eax,%eax,2),%eax
  102602:	8b 04 85 24 d5 10 00 	mov    0x10d524(,%eax,4),%eax
  102609:	c3                   	ret
  10260a:	8d b6 00 00 00 00    	lea    0x0(%esi),%esi
  102610:	b8 01 00 00 00       	mov    $0x1,%eax
  102615:	c3                   	ret
  102616:	2e 8d b4 26 00 00 00 	lea    %cs:0x0(%esi,%eiz,1),%esi
  10261d:	00 
  10261e:	66 90                	xchg   %ax,%ax

00102620 <get_keyboard_irq_flags>:
  102620:	8b 0d 00 d5 10 00    	mov    0x10d500,%ecx
  102626:	85 c9                	test   %ecx,%ecx
  102628:	7e 36                	jle    102660 <get_keyboard_irq_flags+0x40>
  10262a:	ba 20 d5 10 00       	mov    $0x10d520,%edx
  10262f:	31 c0                	xor    %eax,%eax
  102631:	eb 17                	jmp    10264a <get_keyboard_irq_flags+0x2a>
  102633:	2e 8d b4 26 00 00 00 	lea    %cs:0x0(%esi,%eiz,1),%esi
  10263a:	00 
  10263b:	2e 8d 74 26 00       	lea    %cs:0x0(%esi,%eiz,1),%esi
  102640:	83 c0 01             	add    $0x1,%eax
  102643:	83 c2 0c             	add    $0xc,%edx
  102646:	39 c8                	cmp    %ecx,%eax
  102648:	74 16                	je     102660 <get_keyboard_irq_flags+0x40>
  10264a:	80 3a 01             	cmpb   $0x1,(%edx)
  10264d:	75 f1                	jne    102640 <get_keyboard_irq_flags+0x20>
  10264f:	8d 04 40             	lea    (%eax,%eax,2),%eax
  102652:	0f b7 04 85 28 d5 10 	movzwl 0x10d528(,%eax,4),%eax
  102659:	00 
  10265a:	c3                   	ret
  10265b:	2e 8d 74 26 00       	lea    %cs:0x0(%esi,%eiz,1),%esi
  102660:	31 c0                	xor    %eax,%eax
  102662:	c3                   	ret
  102663:	66 90                	xchg   %ax,%ax
  102665:	66 90                	xchg   %ax,%ax
  102667:	66 90                	xchg   %ax,%ax
  102669:	66 90                	xchg   %ax,%ax
  10266b:	66 90                	xchg   %ax,%ax
  10266d:	66 90                	xchg   %ax,%ax
  10266f:	90                   	nop

00102670 <memcmp>:
  102670:	55                   	push   %ebp
  102671:	31 c0                	xor    %eax,%eax
  102673:	89 e5                	mov    %esp,%ebp
  102675:	56                   	push   %esi
  102676:	8b 75 10             	mov    0x10(%ebp),%esi
  102679:	8b 4d 08             	mov    0x8(%ebp),%ecx
  10267c:	53                   	push   %ebx
  10267d:	8b 5d 0c             	mov    0xc(%ebp),%ebx
  102680:	85 f6                	test   %esi,%esi
  102682:	75 13                	jne    102697 <memcmp+0x27>
  102684:	eb 1a                	jmp    1026a0 <memcmp+0x30>
  102686:	2e 8d b4 26 00 00 00 	lea    %cs:0x0(%esi,%eiz,1),%esi
  10268d:	00 
  10268e:	66 90                	xchg   %ax,%ax
  102690:	83 c0 01             	add    $0x1,%eax
  102693:	39 f0                	cmp    %esi,%eax
  102695:	74 09                	je     1026a0 <memcmp+0x30>
  102697:	0f b6 14 03          	movzbl (%ebx,%eax,1),%edx
  10269b:	38 14 01             	cmp    %dl,(%ecx,%eax,1)
  10269e:	74 f0                	je     102690 <memcmp+0x20>
  1026a0:	5b                   	pop    %ebx
  1026a1:	5e                   	pop    %esi
  1026a2:	5d                   	pop    %ebp
  1026a3:	c3                   	ret
  1026a4:	2e 8d b4 26 00 00 00 	lea    %cs:0x0(%esi,%eiz,1),%esi
  1026ab:	00 
  1026ac:	8d 74 26 00          	lea    0x0(%esi,%eiz,1),%esi

001026b0 <memcpy>:
  1026b0:	55                   	push   %ebp
  1026b1:	89 e5                	mov    %esp,%ebp
  1026b3:	56                   	push   %esi
  1026b4:	8b 45 0c             	mov    0xc(%ebp),%eax
  1026b7:	8b 75 08             	mov    0x8(%ebp),%esi
  1026ba:	53                   	push   %ebx
  1026bb:	8b 5d 10             	mov    0x10(%ebp),%ebx
  1026be:	85 db                	test   %ebx,%ebx
  1026c0:	74 1e                	je     1026e0 <memcpy+0x30>
  1026c2:	89 f2                	mov    %esi,%edx
  1026c4:	01 c3                	add    %eax,%ebx
  1026c6:	2e 8d b4 26 00 00 00 	lea    %cs:0x0(%esi,%eiz,1),%esi
  1026cd:	00 
  1026ce:	66 90                	xchg   %ax,%ax
  1026d0:	0f b6 08             	movzbl (%eax),%ecx
  1026d3:	83 c0 01             	add    $0x1,%eax
  1026d6:	83 c2 01             	add    $0x1,%edx
  1026d9:	88 4a ff             	mov    %cl,-0x1(%edx)
  1026dc:	39 d8                	cmp    %ebx,%eax
  1026de:	75 f0                	jne    1026d0 <memcpy+0x20>
  1026e0:	89 f0                	mov    %esi,%eax
  1026e2:	5b                   	pop    %ebx
  1026e3:	5e                   	pop    %esi
  1026e4:	5d                   	pop    %ebp
  1026e5:	c3                   	ret
  1026e6:	2e 8d b4 26 00 00 00 	lea    %cs:0x0(%esi,%eiz,1),%esi
  1026ed:	00 
  1026ee:	66 90                	xchg   %ax,%ax

001026f0 <memmove>:
  1026f0:	55                   	push   %ebp
  1026f1:	89 e5                	mov    %esp,%ebp
  1026f3:	56                   	push   %esi
  1026f4:	8b 55 0c             	mov    0xc(%ebp),%edx
  1026f7:	8b 45 10             	mov    0x10(%ebp),%eax
  1026fa:	53                   	push   %ebx
  1026fb:	8b 5d 08             	mov    0x8(%ebp),%ebx
  1026fe:	39 d3                	cmp    %edx,%ebx
  102700:	72 26                	jb     102728 <memmove+0x38>
  102702:	85 c0                	test   %eax,%eax
  102704:	74 16                	je     10271c <memmove+0x2c>
  102706:	2e 8d b4 26 00 00 00 	lea    %cs:0x0(%esi,%eiz,1),%esi
  10270d:	00 
  10270e:	66 90                	xchg   %ax,%ax
  102710:	83 e8 01             	sub    $0x1,%eax
  102713:	0f b6 0c 02          	movzbl (%edx,%eax,1),%ecx
  102717:	88 0c 03             	mov    %cl,(%ebx,%eax,1)
  10271a:	75 f4                	jne    102710 <memmove+0x20>
  10271c:	89 d8                	mov    %ebx,%eax
  10271e:	5b                   	pop    %ebx
  10271f:	5e                   	pop    %esi
  102720:	5d                   	pop    %ebp
  102721:	c3                   	ret
  102722:	8d b6 00 00 00 00    	lea    0x0(%esi),%esi
  102728:	85 c0                	test   %eax,%eax
  10272a:	74 f0                	je     10271c <memmove+0x2c>
  10272c:	89 de                	mov    %ebx,%esi
  10272e:	01 d0                	add    %edx,%eax
  102730:	0f b6 0a             	movzbl (%edx),%ecx
  102733:	83 c2 01             	add    $0x1,%edx
  102736:	83 c6 01             	add    $0x1,%esi
  102739:	88 4e ff             	mov    %cl,-0x1(%esi)
  10273c:	39 c2                	cmp    %eax,%edx
  10273e:	75 f0                	jne    102730 <memmove+0x40>
  102740:	89 d8                	mov    %ebx,%eax
  102742:	5b                   	pop    %ebx
  102743:	5e                   	pop    %esi
  102744:	5d                   	pop    %ebp
  102745:	c3                   	ret
  102746:	2e 8d b4 26 00 00 00 	lea    %cs:0x0(%esi,%eiz,1),%esi
  10274d:	00 
  10274e:	66 90                	xchg   %ax,%ax

00102750 <memset>:
  102750:	55                   	push   %ebp
  102751:	89 e5                	mov    %esp,%ebp
  102753:	56                   	push   %esi
  102754:	8b 75 10             	mov    0x10(%ebp),%esi
  102757:	8b 55 0c             	mov    0xc(%ebp),%edx
  10275a:	53                   	push   %ebx
  10275b:	8b 5d 08             	mov    0x8(%ebp),%ebx
  10275e:	8d 0c 33             	lea    (%ebx,%esi,1),%ecx
  102761:	85 f6                	test   %esi,%esi
  102763:	74 27                	je     10278c <memset+0x3c>
  102765:	89 ce                	mov    %ecx,%esi
  102767:	89 d8                	mov    %ebx,%eax
  102769:	29 de                	sub    %ebx,%esi
  10276b:	83 e6 01             	and    $0x1,%esi
  10276e:	74 10                	je     102780 <memset+0x30>
  102770:	8d 43 01             	lea    0x1(%ebx),%eax
  102773:	88 50 ff             	mov    %dl,-0x1(%eax)
  102776:	39 c1                	cmp    %eax,%ecx
  102778:	74 12                	je     10278c <memset+0x3c>
  10277a:	8d b6 00 00 00 00    	lea    0x0(%esi),%esi
  102780:	88 10                	mov    %dl,(%eax)
  102782:	83 c0 02             	add    $0x2,%eax
  102785:	88 50 ff             	mov    %dl,-0x1(%eax)
  102788:	39 c1                	cmp    %eax,%ecx
  10278a:	75 f4                	jne    102780 <memset+0x30>
  10278c:	89 d8                	mov    %ebx,%eax
  10278e:	5b                   	pop    %ebx
  10278f:	5e                   	pop    %esi
  102790:	5d                   	pop    %ebp
  102791:	c3                   	ret
  102792:	2e 8d b4 26 00 00 00 	lea    %cs:0x0(%esi,%eiz,1),%esi
  102799:	00 
  10279a:	8d b6 00 00 00 00    	lea    0x0(%esi),%esi

001027a0 <strlen>:
  1027a0:	55                   	push   %ebp
  1027a1:	89 e5                	mov    %esp,%ebp
  1027a3:	8b 55 08             	mov    0x8(%ebp),%edx
  1027a6:	80 3a 00             	cmpb   $0x0,(%edx)
  1027a9:	74 15                	je     1027c0 <strlen+0x20>
  1027ab:	31 c0                	xor    %eax,%eax
  1027ad:	8d 76 00             	lea    0x0(%esi),%esi
  1027b0:	83 c0 01             	add    $0x1,%eax
  1027b3:	89 c1                	mov    %eax,%ecx
  1027b5:	80 3c 02 00          	cmpb   $0x0,(%edx,%eax,1)
  1027b9:	75 f5                	jne    1027b0 <strlen+0x10>
  1027bb:	89 c8                	mov    %ecx,%eax
  1027bd:	5d                   	pop    %ebp
  1027be:	c3                   	ret
  1027bf:	90                   	nop
  1027c0:	31 c9                	xor    %ecx,%ecx
  1027c2:	5d                   	pop    %ebp
  1027c3:	89 c8                	mov    %ecx,%eax
  1027c5:	c3                   	ret
  1027c6:	2e 8d b4 26 00 00 00 	lea    %cs:0x0(%esi,%eiz,1),%esi
  1027cd:	00 
  1027ce:	66 90                	xchg   %ax,%ax

001027d0 <strnlen>:
  1027d0:	55                   	push   %ebp
  1027d1:	31 c0                	xor    %eax,%eax
  1027d3:	89 e5                	mov    %esp,%ebp
  1027d5:	8b 55 0c             	mov    0xc(%ebp),%edx
  1027d8:	8b 4d 08             	mov    0x8(%ebp),%ecx
  1027db:	85 d2                	test   %edx,%edx
  1027dd:	75 18                	jne    1027f7 <strnlen+0x27>
  1027df:	eb 1c                	jmp    1027fd <strnlen+0x2d>
  1027e1:	2e 8d b4 26 00 00 00 	lea    %cs:0x0(%esi,%eiz,1),%esi
  1027e8:	00 
  1027e9:	8d b4 26 00 00 00 00 	lea    0x0(%esi,%eiz,1),%esi
  1027f0:	83 c0 01             	add    $0x1,%eax
  1027f3:	39 d0                	cmp    %edx,%eax
  1027f5:	74 06                	je     1027fd <strnlen+0x2d>
  1027f7:	80 3c 01 00          	cmpb   $0x0,(%ecx,%eax,1)
  1027fb:	75 f3                	jne    1027f0 <strnlen+0x20>
  1027fd:	5d                   	pop    %ebp
  1027fe:	c3                   	ret
  1027ff:	90                   	nop

00102800 <strncmp>:
  102800:	55                   	push   %ebp
  102801:	89 e5                	mov    %esp,%ebp
  102803:	56                   	push   %esi
  102804:	8b 75 10             	mov    0x10(%ebp),%esi
  102807:	53                   	push   %ebx
  102808:	85 f6                	test   %esi,%esi
  10280a:	74 44                	je     102850 <strncmp+0x50>
  10280c:	8b 45 08             	mov    0x8(%ebp),%eax
  10280f:	8b 5d 0c             	mov    0xc(%ebp),%ebx
  102812:	01 c6                	add    %eax,%esi
  102814:	eb 1c                	jmp    102832 <strncmp+0x32>
  102816:	2e 8d b4 26 00 00 00 	lea    %cs:0x0(%esi,%eiz,1),%esi
  10281d:	00 
  10281e:	66 90                	xchg   %ax,%ax
  102820:	84 c9                	test   %cl,%cl
  102822:	74 24                	je     102848 <strncmp+0x48>
  102824:	38 ca                	cmp    %cl,%dl
  102826:	75 20                	jne    102848 <strncmp+0x48>
  102828:	83 c0 01             	add    $0x1,%eax
  10282b:	83 c3 01             	add    $0x1,%ebx
  10282e:	39 f0                	cmp    %esi,%eax
  102830:	74 1e                	je     102850 <strncmp+0x50>
  102832:	0f b6 10             	movzbl (%eax),%edx
  102835:	0f be 0b             	movsbl (%ebx),%ecx
  102838:	84 d2                	test   %dl,%dl
  10283a:	75 e4                	jne    102820 <strncmp+0x20>
  10283c:	31 c0                	xor    %eax,%eax
  10283e:	5b                   	pop    %ebx
  10283f:	29 c8                	sub    %ecx,%eax
  102841:	5e                   	pop    %esi
  102842:	5d                   	pop    %ebp
  102843:	c3                   	ret
  102844:	8d 74 26 00          	lea    0x0(%esi,%eiz,1),%esi
  102848:	0f be c2             	movsbl %dl,%eax
  10284b:	eb f1                	jmp    10283e <strncmp+0x3e>
  10284d:	8d 76 00             	lea    0x0(%esi),%esi
  102850:	5b                   	pop    %ebx
  102851:	31 c0                	xor    %eax,%eax
  102853:	5e                   	pop    %esi
  102854:	5d                   	pop    %ebp
  102855:	c3                   	ret
  102856:	2e 8d b4 26 00 00 00 	lea    %cs:0x0(%esi,%eiz,1),%esi
  10285d:	00 
  10285e:	66 90                	xchg   %ax,%ax

00102860 <itoa>:
  102860:	c3                   	ret
  102861:	2e 8d b4 26 00 00 00 	lea    %cs:0x0(%esi,%eiz,1),%esi
  102868:	00 
  102869:	8d b4 26 00 00 00 00 	lea    0x0(%esi,%eiz,1),%esi

00102870 <itoa_hex>:
  102870:	c3                   	ret
  102871:	66 90                	xchg   %ax,%ax
  102873:	66 90                	xchg   %ax,%ax
  102875:	66 90                	xchg   %ax,%ax
  102877:	66 90                	xchg   %ax,%ax
  102879:	66 90                	xchg   %ax,%ax
  10287b:	66 90                	xchg   %ax,%ax
  10287d:	66 90                	xchg   %ax,%ax
  10287f:	90                   	nop

00102880 <keyboard_interrupt_handler>:
  102880:	e4 60                	in     $0x60,%al
  102882:	3c 2a                	cmp    $0x2a,%al
  102884:	74 5a                	je     1028e0 <keyboard_interrupt_handler+0x60>
  102886:	3c 36                	cmp    $0x36,%al
  102888:	74 56                	je     1028e0 <keyboard_interrupt_handler+0x60>
  10288a:	3c aa                	cmp    $0xaa,%al
  10288c:	74 6a                	je     1028f8 <keyboard_interrupt_handler+0x78>
  10288e:	3c b6                	cmp    $0xb6,%al
  102890:	74 66                	je     1028f8 <keyboard_interrupt_handler+0x78>
  102892:	3c 39                	cmp    $0x39,%al
  102894:	77 54                	ja     1028ea <keyboard_interrupt_handler+0x6a>
  102896:	8b 15 e8 d5 10 00    	mov    0x10d5e8,%edx
  10289c:	0f b6 c0             	movzbl %al,%eax
  10289f:	85 d2                	test   %edx,%edx
  1028a1:	75 6d                	jne    102910 <keyboard_interrupt_handler+0x90>
  1028a3:	0f be 90 80 50 10 00 	movsbl 0x105080(%eax),%edx
  1028aa:	84 d2                	test   %dl,%dl
  1028ac:	74 3c                	je     1028ea <keyboard_interrupt_handler+0x6a>
  1028ae:	55                   	push   %ebp
  1028af:	89 e5                	mov    %esp,%ebp
  1028b1:	83 ec 20             	sub    $0x20,%esp
  1028b4:	52                   	push   %edx
  1028b5:	68 49 63 10 00       	push   $0x106349
  1028ba:	89 55 f4             	mov    %edx,-0xc(%ebp)
  1028bd:	e8 6e 22 00 00       	call   104b30 <printf>
  1028c2:	58                   	pop    %eax
  1028c3:	ff 75 f4             	push   -0xc(%ebp)
  1028c6:	e8 f5 0b 00 00       	call   1034c0 <hush_handle_keypress>
  1028cb:	83 c4 10             	add    $0x10,%esp
  1028ce:	c7 05 b0 00 e0 fe 00 	movl   $0x0,0xfee000b0
  1028d5:	00 00 00 
  1028d8:	c9                   	leave
  1028d9:	c3                   	ret
  1028da:	8d b6 00 00 00 00    	lea    0x0(%esi),%esi
  1028e0:	c7 05 e8 d5 10 00 01 	movl   $0x1,0x10d5e8
  1028e7:	00 00 00 
  1028ea:	c7 05 b0 00 e0 fe 00 	movl   $0x0,0xfee000b0
  1028f1:	00 00 00 
  1028f4:	c3                   	ret
  1028f5:	8d 76 00             	lea    0x0(%esi),%esi
  1028f8:	c7 05 e8 d5 10 00 00 	movl   $0x0,0x10d5e8
  1028ff:	00 00 00 
  102902:	c7 05 b0 00 e0 fe 00 	movl   $0x0,0xfee000b0
  102909:	00 00 00 
  10290c:	c3                   	ret
  10290d:	8d 76 00             	lea    0x0(%esi),%esi
  102910:	0f be 90 40 50 10 00 	movsbl 0x105040(%eax),%edx
  102917:	eb 91                	jmp    1028aa <keyboard_interrupt_handler+0x2a>
  102919:	8d b4 26 00 00 00 00 	lea    0x0(%esi,%eiz,1),%esi

00102920 <setup_keyboard_irq>:
  102920:	55                   	push   %ebp
  102921:	89 e5                	mov    %esp,%ebp
  102923:	83 ec 10             	sub    $0x10,%esp
  102926:	68 80 28 10 00       	push   $0x102880
  10292b:	6a 21                	push   $0x21
  10292d:	e8 1e e9 ff ff       	call   101250 <register_interrupt_handler>
  102932:	83 c4 10             	add    $0x10,%esp
  102935:	c9                   	leave
  102936:	c3                   	ret
  102937:	2e 8d b4 26 00 00 00 	lea    %cs:0x0(%esi,%eiz,1),%esi
  10293e:	00 
  10293f:	90                   	nop

00102940 <init_keyboard>:
  102940:	55                   	push   %ebp
  102941:	89 e5                	mov    %esp,%ebp
  102943:	83 ec 20             	sub    $0x20,%esp
  102946:	68 b8 59 10 00       	push   $0x1059b8
  10294b:	6a 00                	push   $0x0
  10294d:	e8 ce 20 00 00       	call   104a20 <logf>
  102952:	58                   	pop    %eax
  102953:	5a                   	pop    %edx
  102954:	68 e8 59 10 00       	push   $0x1059e8
  102959:	6a 04                	push   $0x4
  10295b:	e8 c0 20 00 00       	call   104a20 <logf>
  102960:	83 c4 10             	add    $0x10,%esp
  102963:	ba a0 86 01 00       	mov    $0x186a0,%edx
  102968:	eb 0f                	jmp    102979 <init_keyboard+0x39>
  10296a:	8d b6 00 00 00 00    	lea    0x0(%esi),%esi
  102970:	83 ea 01             	sub    $0x1,%edx
  102973:	0f 84 c7 04 00 00    	je     102e40 <init_keyboard+0x500>
  102979:	e4 64                	in     $0x64,%al
  10297b:	a8 02                	test   $0x2,%al
  10297d:	75 f1                	jne    102970 <init_keyboard+0x30>
  10297f:	b8 ad ff ff ff       	mov    $0xffffffad,%eax
  102984:	e6 64                	out    %al,$0x64
  102986:	ba a0 86 01 00       	mov    $0x186a0,%edx
  10298b:	eb 0c                	jmp    102999 <init_keyboard+0x59>
  10298d:	8d 76 00             	lea    0x0(%esi),%esi
  102990:	83 ea 01             	sub    $0x1,%edx
  102993:	0f 84 c7 03 00 00    	je     102d60 <init_keyboard+0x420>
  102999:	e4 64                	in     $0x64,%al
  10299b:	a8 02                	test   $0x2,%al
  10299d:	75 f1                	jne    102990 <init_keyboard+0x50>
  10299f:	b8 a7 ff ff ff       	mov    $0xffffffa7,%eax
  1029a4:	e6 64                	out    %al,$0x64
  1029a6:	e4 60                	in     $0x60,%al
  1029a8:	ba a0 86 01 00       	mov    $0x186a0,%edx
  1029ad:	eb 0a                	jmp    1029b9 <init_keyboard+0x79>
  1029af:	90                   	nop
  1029b0:	83 ea 01             	sub    $0x1,%edx
  1029b3:	0f 84 c7 03 00 00    	je     102d80 <init_keyboard+0x440>
  1029b9:	e4 64                	in     $0x64,%al
  1029bb:	a8 02                	test   $0x2,%al
  1029bd:	75 f1                	jne    1029b0 <init_keyboard+0x70>
  1029bf:	b8 20 00 00 00       	mov    $0x20,%eax
  1029c4:	e6 64                	out    %al,$0x64
  1029c6:	ba a0 86 01 00       	mov    $0x186a0,%edx
  1029cb:	eb 0c                	jmp    1029d9 <init_keyboard+0x99>
  1029cd:	8d 76 00             	lea    0x0(%esi),%esi
  1029d0:	83 ea 01             	sub    $0x1,%edx
  1029d3:	0f 84 67 03 00 00    	je     102d40 <init_keyboard+0x400>
  1029d9:	e4 64                	in     $0x64,%al
  1029db:	a8 01                	test   $0x1,%al
  1029dd:	74 f1                	je     1029d0 <init_keyboard+0x90>
  1029df:	e4 60                	in     $0x60,%al
  1029e1:	83 c8 41             	or     $0x41,%eax
  1029e4:	ba a0 86 01 00       	mov    $0x186a0,%edx
  1029e9:	89 c1                	mov    %eax,%ecx
  1029eb:	eb 0c                	jmp    1029f9 <init_keyboard+0xb9>
  1029ed:	8d 76 00             	lea    0x0(%esi),%esi
  1029f0:	83 ea 01             	sub    $0x1,%edx
  1029f3:	0f 84 7c 04 00 00    	je     102e75 <init_keyboard+0x535>
  1029f9:	e4 64                	in     $0x64,%al
  1029fb:	a8 02                	test   $0x2,%al
  1029fd:	75 f1                	jne    1029f0 <init_keyboard+0xb0>
  1029ff:	b8 60 00 00 00       	mov    $0x60,%eax
  102a04:	e6 64                	out    %al,$0x64
  102a06:	ba a0 86 01 00       	mov    $0x186a0,%edx
  102a0b:	eb 0c                	jmp    102a19 <init_keyboard+0xd9>
  102a0d:	8d 76 00             	lea    0x0(%esi),%esi
  102a10:	83 ea 01             	sub    $0x1,%edx
  102a13:	0f 84 3e 04 00 00    	je     102e57 <init_keyboard+0x517>
  102a19:	e4 64                	in     $0x64,%al
  102a1b:	a8 02                	test   $0x2,%al
  102a1d:	75 f1                	jne    102a10 <init_keyboard+0xd0>
  102a1f:	89 c8                	mov    %ecx,%eax
  102a21:	e6 60                	out    %al,$0x60
  102a23:	ba a0 86 01 00       	mov    $0x186a0,%edx
  102a28:	eb 0f                	jmp    102a39 <init_keyboard+0xf9>
  102a2a:	8d b6 00 00 00 00    	lea    0x0(%esi),%esi
  102a30:	83 ea 01             	sub    $0x1,%edx
  102a33:	0f 84 e7 03 00 00    	je     102e20 <init_keyboard+0x4e0>
  102a39:	e4 64                	in     $0x64,%al
  102a3b:	a8 02                	test   $0x2,%al
  102a3d:	75 f1                	jne    102a30 <init_keyboard+0xf0>
  102a3f:	b8 aa ff ff ff       	mov    $0xffffffaa,%eax
  102a44:	e6 64                	out    %al,$0x64
  102a46:	ba a0 86 01 00       	mov    $0x186a0,%edx
  102a4b:	eb 0c                	jmp    102a59 <init_keyboard+0x119>
  102a4d:	8d 76 00             	lea    0x0(%esi),%esi
  102a50:	83 ea 01             	sub    $0x1,%edx
  102a53:	0f 84 a7 03 00 00    	je     102e00 <init_keyboard+0x4c0>
  102a59:	e4 64                	in     $0x64,%al
  102a5b:	a8 01                	test   $0x1,%al
  102a5d:	74 f1                	je     102a50 <init_keyboard+0x110>
  102a5f:	e4 60                	in     $0x60,%al
  102a61:	3c 55                	cmp    $0x55,%al
  102a63:	0f 84 5f 02 00 00    	je     102cc8 <init_keyboard+0x388>
  102a69:	83 ec 08             	sub    $0x8,%esp
  102a6c:	88 45 f7             	mov    %al,-0x9(%ebp)
  102a6f:	68 4c 63 10 00       	push   $0x10634c
  102a74:	6a 03                	push   $0x3
  102a76:	e8 a5 1f 00 00       	call   104a20 <logf>
  102a7b:	59                   	pop    %ecx
  102a7c:	58                   	pop    %eax
  102a7d:	0f b6 45 f7          	movzbl -0x9(%ebp),%eax
  102a81:	50                   	push   %eax
  102a82:	68 74 62 10 00       	push   $0x106274
  102a87:	e8 a4 20 00 00       	call   104b30 <printf>
  102a8c:	83 c4 10             	add    $0x10,%esp
  102a8f:	ba a0 86 01 00       	mov    $0x186a0,%edx
  102a94:	eb 13                	jmp    102aa9 <init_keyboard+0x169>
  102a96:	2e 8d b4 26 00 00 00 	lea    %cs:0x0(%esi,%eiz,1),%esi
  102a9d:	00 
  102a9e:	66 90                	xchg   %ax,%ax
  102aa0:	83 ea 01             	sub    $0x1,%edx
  102aa3:	0f 84 37 03 00 00    	je     102de0 <init_keyboard+0x4a0>
  102aa9:	e4 64                	in     $0x64,%al
  102aab:	a8 02                	test   $0x2,%al
  102aad:	75 f1                	jne    102aa0 <init_keyboard+0x160>
  102aaf:	b8 ab ff ff ff       	mov    $0xffffffab,%eax
  102ab4:	e6 64                	out    %al,$0x64
  102ab6:	ba a0 86 01 00       	mov    $0x186a0,%edx
  102abb:	eb 0c                	jmp    102ac9 <init_keyboard+0x189>
  102abd:	8d 76 00             	lea    0x0(%esi),%esi
  102ac0:	83 ea 01             	sub    $0x1,%edx
  102ac3:	0f 84 f7 02 00 00    	je     102dc0 <init_keyboard+0x480>
  102ac9:	e4 64                	in     $0x64,%al
  102acb:	a8 01                	test   $0x1,%al
  102acd:	74 f1                	je     102ac0 <init_keyboard+0x180>
  102acf:	e4 60                	in     $0x60,%al
  102ad1:	84 c0                	test   %al,%al
  102ad3:	0f 85 37 01 00 00    	jne    102c10 <init_keyboard+0x2d0>
  102ad9:	83 ec 08             	sub    $0x8,%esp
  102adc:	68 a4 5a 10 00       	push   $0x105aa4
  102ae1:	6a 01                	push   $0x1
  102ae3:	e8 38 1f 00 00       	call   104a20 <logf>
  102ae8:	83 c4 10             	add    $0x10,%esp
  102aeb:	ba a0 86 01 00       	mov    $0x186a0,%edx
  102af0:	eb 0f                	jmp    102b01 <init_keyboard+0x1c1>
  102af2:	8d b6 00 00 00 00    	lea    0x0(%esi),%esi
  102af8:	83 ea 01             	sub    $0x1,%edx
  102afb:	0f 84 9f 02 00 00    	je     102da0 <init_keyboard+0x460>
  102b01:	e4 64                	in     $0x64,%al
  102b03:	a8 02                	test   $0x2,%al
  102b05:	75 f1                	jne    102af8 <init_keyboard+0x1b8>
  102b07:	b8 ae ff ff ff       	mov    $0xffffffae,%eax
  102b0c:	e6 64                	out    %al,$0x64
  102b0e:	ba a0 86 01 00       	mov    $0x186a0,%edx
  102b13:	eb 0c                	jmp    102b21 <init_keyboard+0x1e1>
  102b15:	8d 76 00             	lea    0x0(%esi),%esi
  102b18:	83 ea 01             	sub    $0x1,%edx
  102b1b:	0f 84 ff 01 00 00    	je     102d20 <init_keyboard+0x3e0>
  102b21:	e4 64                	in     $0x64,%al
  102b23:	a8 02                	test   $0x2,%al
  102b25:	75 f1                	jne    102b18 <init_keyboard+0x1d8>
  102b27:	b8 ff ff ff ff       	mov    $0xffffffff,%eax
  102b2c:	e6 60                	out    %al,$0x60
  102b2e:	ba a0 86 01 00       	mov    $0x186a0,%edx
  102b33:	eb 0c                	jmp    102b41 <init_keyboard+0x201>
  102b35:	8d 76 00             	lea    0x0(%esi),%esi
  102b38:	83 ea 01             	sub    $0x1,%edx
  102b3b:	0f 84 ff 00 00 00    	je     102c40 <init_keyboard+0x300>
  102b41:	e4 64                	in     $0x64,%al
  102b43:	a8 01                	test   $0x1,%al
  102b45:	74 f1                	je     102b38 <init_keyboard+0x1f8>
  102b47:	e4 60                	in     $0x60,%al
  102b49:	3c fa                	cmp    $0xfa,%al
  102b4b:	0f 84 2f 01 00 00    	je     102c80 <init_keyboard+0x340>
  102b51:	83 ec 08             	sub    $0x8,%esp
  102b54:	88 45 f7             	mov    %al,-0x9(%ebp)
  102b57:	68 20 5b 10 00       	push   $0x105b20
  102b5c:	6a 02                	push   $0x2
  102b5e:	e8 bd 1e 00 00       	call   104a20 <logf>
  102b63:	59                   	pop    %ecx
  102b64:	58                   	pop    %eax
  102b65:	0f b6 45 f7          	movzbl -0x9(%ebp),%eax
  102b69:	50                   	push   %eax
  102b6a:	68 74 62 10 00       	push   $0x106274
  102b6f:	e8 bc 1f 00 00       	call   104b30 <printf>
  102b74:	83 c4 10             	add    $0x10,%esp
  102b77:	ba a0 86 01 00       	mov    $0x186a0,%edx
  102b7c:	eb 0b                	jmp    102b89 <init_keyboard+0x249>
  102b7e:	66 90                	xchg   %ax,%ax
  102b80:	83 ea 01             	sub    $0x1,%edx
  102b83:	0f 84 77 01 00 00    	je     102d00 <init_keyboard+0x3c0>
  102b89:	e4 64                	in     $0x64,%al
  102b8b:	a8 02                	test   $0x2,%al
  102b8d:	75 f1                	jne    102b80 <init_keyboard+0x240>
  102b8f:	b8 f4 ff ff ff       	mov    $0xfffffff4,%eax
  102b94:	e6 60                	out    %al,$0x60
  102b96:	ba a0 86 01 00       	mov    $0x186a0,%edx
  102b9b:	eb 0c                	jmp    102ba9 <init_keyboard+0x269>
  102b9d:	8d 76 00             	lea    0x0(%esi),%esi
  102ba0:	83 ea 01             	sub    $0x1,%edx
  102ba3:	0f 84 37 01 00 00    	je     102ce0 <init_keyboard+0x3a0>
  102ba9:	e4 64                	in     $0x64,%al
  102bab:	a8 01                	test   $0x1,%al
  102bad:	74 f1                	je     102ba0 <init_keyboard+0x260>
  102baf:	e4 60                	in     $0x60,%al
  102bb1:	3c fa                	cmp    $0xfa,%al
  102bb3:	0f 84 a7 00 00 00    	je     102c60 <init_keyboard+0x320>
  102bb9:	83 ec 08             	sub    $0x8,%esp
  102bbc:	88 45 f7             	mov    %al,-0x9(%ebp)
  102bbf:	68 40 5b 10 00       	push   $0x105b40
  102bc4:	6a 03                	push   $0x3
  102bc6:	e8 55 1e 00 00       	call   104a20 <logf>
  102bcb:	58                   	pop    %eax
  102bcc:	0f b6 45 f7          	movzbl -0x9(%ebp),%eax
  102bd0:	5a                   	pop    %edx
  102bd1:	50                   	push   %eax
  102bd2:	68 74 62 10 00       	push   $0x106274
  102bd7:	e8 54 1f 00 00       	call   104b30 <printf>
  102bdc:	83 c4 10             	add    $0x10,%esp
  102bdf:	83 ec 08             	sub    $0x8,%esp
  102be2:	68 68 5b 10 00       	push   $0x105b68
  102be7:	6a 01                	push   $0x1
  102be9:	e8 32 1e 00 00       	call   104a20 <logf>
  102bee:	58                   	pop    %eax
  102bef:	5a                   	pop    %edx
  102bf0:	68 80 28 10 00       	push   $0x102880
  102bf5:	6a 21                	push   $0x21
  102bf7:	e8 54 e6 ff ff       	call   101250 <register_interrupt_handler>
  102bfc:	59                   	pop    %ecx
  102bfd:	58                   	pop    %eax
  102bfe:	68 94 5b 10 00       	push   $0x105b94
  102c03:	6a 01                	push   $0x1
  102c05:	e8 16 1e 00 00       	call   104a20 <logf>
  102c0a:	83 c4 10             	add    $0x10,%esp
  102c0d:	c9                   	leave
  102c0e:	c3                   	ret
  102c0f:	90                   	nop
  102c10:	83 ec 08             	sub    $0x8,%esp
  102c13:	88 45 f7             	mov    %al,-0x9(%ebp)
  102c16:	68 6a 63 10 00       	push   $0x10636a
  102c1b:	6a 03                	push   $0x3
  102c1d:	e8 fe 1d 00 00       	call   104a20 <logf>
  102c22:	58                   	pop    %eax
  102c23:	0f b6 45 f7          	movzbl -0x9(%ebp),%eax
  102c27:	5a                   	pop    %edx
  102c28:	50                   	push   %eax
  102c29:	68 74 62 10 00       	push   $0x106274
  102c2e:	e8 fd 1e 00 00       	call   104b30 <printf>
  102c33:	83 c4 10             	add    $0x10,%esp
  102c36:	e9 b0 fe ff ff       	jmp    102aeb <init_keyboard+0x1ab>
  102c3b:	2e 8d 74 26 00       	lea    %cs:0x0(%esi,%eiz,1),%esi
  102c40:	83 ec 08             	sub    $0x8,%esp
  102c43:	68 48 5a 10 00       	push   $0x105a48
  102c48:	6a 02                	push   $0x2
  102c4a:	e8 d1 1d 00 00       	call   104a20 <logf>
  102c4f:	83 c4 10             	add    $0x10,%esp
  102c52:	e9 20 ff ff ff       	jmp    102b77 <init_keyboard+0x237>
  102c57:	2e 8d b4 26 00 00 00 	lea    %cs:0x0(%esi,%eiz,1),%esi
  102c5e:	00 
  102c5f:	90                   	nop
  102c60:	83 ec 08             	sub    $0x8,%esp
  102c63:	68 a2 63 10 00       	push   $0x1063a2
  102c68:	6a 01                	push   $0x1
  102c6a:	e8 b1 1d 00 00       	call   104a20 <logf>
  102c6f:	83 c4 10             	add    $0x10,%esp
  102c72:	e9 68 ff ff ff       	jmp    102bdf <init_keyboard+0x29f>
  102c77:	2e 8d b4 26 00 00 00 	lea    %cs:0x0(%esi,%eiz,1),%esi
  102c7e:	00 
  102c7f:	90                   	nop
  102c80:	83 ec 08             	sub    $0x8,%esp
  102c83:	68 cc 5a 10 00       	push   $0x105acc
  102c88:	6a 04                	push   $0x4
  102c8a:	e8 91 1d 00 00       	call   104a20 <logf>
  102c8f:	83 c4 10             	add    $0x10,%esp
  102c92:	ba a0 86 01 00       	mov    $0x186a0,%edx
  102c97:	eb 0c                	jmp    102ca5 <init_keyboard+0x365>
  102c99:	8d b4 26 00 00 00 00 	lea    0x0(%esi,%eiz,1),%esi
  102ca0:	83 ea 01             	sub    $0x1,%edx
  102ca3:	74 9b                	je     102c40 <init_keyboard+0x300>
  102ca5:	e4 64                	in     $0x64,%al
  102ca7:	a8 01                	test   $0x1,%al
  102ca9:	74 f5                	je     102ca0 <init_keyboard+0x360>
  102cab:	e4 60                	in     $0x60,%al
  102cad:	3c aa                	cmp    $0xaa,%al
  102caf:	0f 84 de 01 00 00    	je     102e93 <init_keyboard+0x553>
  102cb5:	83 ec 08             	sub    $0x8,%esp
  102cb8:	88 45 f7             	mov    %al,-0x9(%ebp)
  102cbb:	68 86 63 10 00       	push   $0x106386
  102cc0:	e9 97 fe ff ff       	jmp    102b5c <init_keyboard+0x21c>
  102cc5:	8d 76 00             	lea    0x0(%esi),%esi
  102cc8:	83 ec 08             	sub    $0x8,%esp
  102ccb:	68 78 5a 10 00       	push   $0x105a78
  102cd0:	6a 01                	push   $0x1
  102cd2:	e8 49 1d 00 00       	call   104a20 <logf>
  102cd7:	83 c4 10             	add    $0x10,%esp
  102cda:	e9 b0 fd ff ff       	jmp    102a8f <init_keyboard+0x14f>
  102cdf:	90                   	nop
  102ce0:	83 ec 08             	sub    $0x8,%esp
  102ce3:	68 48 5a 10 00       	push   $0x105a48
  102ce8:	6a 02                	push   $0x2
  102cea:	e8 31 1d 00 00       	call   104a20 <logf>
  102cef:	83 c4 10             	add    $0x10,%esp
  102cf2:	e9 e8 fe ff ff       	jmp    102bdf <init_keyboard+0x29f>
  102cf7:	2e 8d b4 26 00 00 00 	lea    %cs:0x0(%esi,%eiz,1),%esi
  102cfe:	00 
  102cff:	90                   	nop
  102d00:	83 ec 08             	sub    $0x8,%esp
  102d03:	68 18 5a 10 00       	push   $0x105a18
  102d08:	6a 02                	push   $0x2
  102d0a:	e8 11 1d 00 00       	call   104a20 <logf>
  102d0f:	83 c4 10             	add    $0x10,%esp
  102d12:	e9 78 fe ff ff       	jmp    102b8f <init_keyboard+0x24f>
  102d17:	2e 8d b4 26 00 00 00 	lea    %cs:0x0(%esi,%eiz,1),%esi
  102d1e:	00 
  102d1f:	90                   	nop
  102d20:	83 ec 08             	sub    $0x8,%esp
  102d23:	68 18 5a 10 00       	push   $0x105a18
  102d28:	6a 02                	push   $0x2
  102d2a:	e8 f1 1c 00 00       	call   104a20 <logf>
  102d2f:	83 c4 10             	add    $0x10,%esp
  102d32:	e9 f0 fd ff ff       	jmp    102b27 <init_keyboard+0x1e7>
  102d37:	2e 8d b4 26 00 00 00 	lea    %cs:0x0(%esi,%eiz,1),%esi
  102d3e:	00 
  102d3f:	90                   	nop
  102d40:	83 ec 08             	sub    $0x8,%esp
  102d43:	68 48 5a 10 00       	push   $0x105a48
  102d48:	6a 02                	push   $0x2
  102d4a:	e8 d1 1c 00 00       	call   104a20 <logf>
  102d4f:	83 c4 10             	add    $0x10,%esp
  102d52:	e9 cc fc ff ff       	jmp    102a23 <init_keyboard+0xe3>
  102d57:	2e 8d b4 26 00 00 00 	lea    %cs:0x0(%esi,%eiz,1),%esi
  102d5e:	00 
  102d5f:	90                   	nop
  102d60:	83 ec 08             	sub    $0x8,%esp
  102d63:	68 18 5a 10 00       	push   $0x105a18
  102d68:	6a 02                	push   $0x2
  102d6a:	e8 b1 1c 00 00       	call   104a20 <logf>
  102d6f:	83 c4 10             	add    $0x10,%esp
  102d72:	e9 28 fc ff ff       	jmp    10299f <init_keyboard+0x5f>
  102d77:	2e 8d b4 26 00 00 00 	lea    %cs:0x0(%esi,%eiz,1),%esi
  102d7e:	00 
  102d7f:	90                   	nop
  102d80:	83 ec 08             	sub    $0x8,%esp
  102d83:	68 18 5a 10 00       	push   $0x105a18
  102d88:	6a 02                	push   $0x2
  102d8a:	e8 91 1c 00 00       	call   104a20 <logf>
  102d8f:	83 c4 10             	add    $0x10,%esp
  102d92:	e9 28 fc ff ff       	jmp    1029bf <init_keyboard+0x7f>
  102d97:	2e 8d b4 26 00 00 00 	lea    %cs:0x0(%esi,%eiz,1),%esi
  102d9e:	00 
  102d9f:	90                   	nop
  102da0:	83 ec 08             	sub    $0x8,%esp
  102da3:	68 18 5a 10 00       	push   $0x105a18
  102da8:	6a 02                	push   $0x2
  102daa:	e8 71 1c 00 00       	call   104a20 <logf>
  102daf:	83 c4 10             	add    $0x10,%esp
  102db2:	e9 50 fd ff ff       	jmp    102b07 <init_keyboard+0x1c7>
  102db7:	2e 8d b4 26 00 00 00 	lea    %cs:0x0(%esi,%eiz,1),%esi
  102dbe:	00 
  102dbf:	90                   	nop
  102dc0:	83 ec 08             	sub    $0x8,%esp
  102dc3:	68 48 5a 10 00       	push   $0x105a48
  102dc8:	6a 02                	push   $0x2
  102dca:	e8 51 1c 00 00       	call   104a20 <logf>
  102dcf:	83 c4 10             	add    $0x10,%esp
  102dd2:	e9 14 fd ff ff       	jmp    102aeb <init_keyboard+0x1ab>
  102dd7:	2e 8d b4 26 00 00 00 	lea    %cs:0x0(%esi,%eiz,1),%esi
  102dde:	00 
  102ddf:	90                   	nop
  102de0:	83 ec 08             	sub    $0x8,%esp
  102de3:	68 18 5a 10 00       	push   $0x105a18
  102de8:	6a 02                	push   $0x2
  102dea:	e8 31 1c 00 00       	call   104a20 <logf>
  102def:	83 c4 10             	add    $0x10,%esp
  102df2:	e9 b8 fc ff ff       	jmp    102aaf <init_keyboard+0x16f>
  102df7:	2e 8d b4 26 00 00 00 	lea    %cs:0x0(%esi,%eiz,1),%esi
  102dfe:	00 
  102dff:	90                   	nop
  102e00:	83 ec 08             	sub    $0x8,%esp
  102e03:	68 48 5a 10 00       	push   $0x105a48
  102e08:	6a 02                	push   $0x2
  102e0a:	e8 11 1c 00 00       	call   104a20 <logf>
  102e0f:	83 c4 10             	add    $0x10,%esp
  102e12:	e9 78 fc ff ff       	jmp    102a8f <init_keyboard+0x14f>
  102e17:	2e 8d b4 26 00 00 00 	lea    %cs:0x0(%esi,%eiz,1),%esi
  102e1e:	00 
  102e1f:	90                   	nop
  102e20:	83 ec 08             	sub    $0x8,%esp
  102e23:	68 18 5a 10 00       	push   $0x105a18
  102e28:	6a 02                	push   $0x2
  102e2a:	e8 f1 1b 00 00       	call   104a20 <logf>
  102e2f:	83 c4 10             	add    $0x10,%esp
  102e32:	e9 08 fc ff ff       	jmp    102a3f <init_keyboard+0xff>
  102e37:	2e 8d b4 26 00 00 00 	lea    %cs:0x0(%esi,%eiz,1),%esi
  102e3e:	00 
  102e3f:	90                   	nop
  102e40:	83 ec 08             	sub    $0x8,%esp
  102e43:	68 18 5a 10 00       	push   $0x105a18
  102e48:	6a 02                	push   $0x2
  102e4a:	e8 d1 1b 00 00       	call   104a20 <logf>
  102e4f:	83 c4 10             	add    $0x10,%esp
  102e52:	e9 28 fb ff ff       	jmp    10297f <init_keyboard+0x3f>
  102e57:	83 ec 08             	sub    $0x8,%esp
  102e5a:	88 4d f7             	mov    %cl,-0x9(%ebp)
  102e5d:	68 18 5a 10 00       	push   $0x105a18
  102e62:	6a 02                	push   $0x2
  102e64:	e8 b7 1b 00 00       	call   104a20 <logf>
  102e69:	0f b6 4d f7          	movzbl -0x9(%ebp),%ecx
  102e6d:	83 c4 10             	add    $0x10,%esp
  102e70:	e9 aa fb ff ff       	jmp    102a1f <init_keyboard+0xdf>
  102e75:	83 ec 08             	sub    $0x8,%esp
  102e78:	88 4d f7             	mov    %cl,-0x9(%ebp)
  102e7b:	68 18 5a 10 00       	push   $0x105a18
  102e80:	6a 02                	push   $0x2
  102e82:	e8 99 1b 00 00       	call   104a20 <logf>
  102e87:	0f b6 4d f7          	movzbl -0x9(%ebp),%ecx
  102e8b:	83 c4 10             	add    $0x10,%esp
  102e8e:	e9 6c fb ff ff       	jmp    1029ff <init_keyboard+0xbf>
  102e93:	83 ec 08             	sub    $0x8,%esp
  102e96:	68 f8 5a 10 00       	push   $0x105af8
  102e9b:	6a 01                	push   $0x1
  102e9d:	e8 7e 1b 00 00       	call   104a20 <logf>
  102ea2:	83 c4 10             	add    $0x10,%esp
  102ea5:	e9 cd fc ff ff       	jmp    102b77 <init_keyboard+0x237>
  102eaa:	66 90                	xchg   %ax,%ax
  102eac:	66 90                	xchg   %ax,%ax
  102eae:	66 90                	xchg   %ax,%ax
  102eb0:	66 90                	xchg   %ax,%ax
  102eb2:	66 90                	xchg   %ax,%ax
  102eb4:	66 90                	xchg   %ax,%ax
  102eb6:	66 90                	xchg   %ax,%ax
  102eb8:	66 90                	xchg   %ax,%ax
  102eba:	66 90                	xchg   %ax,%ax
  102ebc:	66 90                	xchg   %ax,%ax
  102ebe:	66 90                	xchg   %ax,%ax

00102ec0 <cmd_help>:
  102ec0:	55                   	push   %ebp
  102ec1:	89 e5                	mov    %esp,%ebp
  102ec3:	53                   	push   %ebx
  102ec4:	83 ec 10             	sub    $0x10,%esp
  102ec7:	68 c0 63 10 00       	push   $0x1063c0
  102ecc:	e8 5f 1c 00 00       	call   104b30 <printf>
  102ed1:	a1 2c d9 10 00       	mov    0x10d92c,%eax
  102ed6:	83 c4 10             	add    $0x10,%esp
  102ed9:	85 c0                	test   %eax,%eax
  102edb:	7e 2a                	jle    102f07 <cmd_help+0x47>
  102edd:	31 db                	xor    %ebx,%ebx
  102edf:	90                   	nop
  102ee0:	8b 04 9d 40 d9 10 00 	mov    0x10d940(,%ebx,4),%eax
  102ee7:	83 ec 04             	sub    $0x4,%esp
  102eea:	83 c3 01             	add    $0x1,%ebx
  102eed:	ff 70 04             	push   0x4(%eax)
  102ef0:	ff 30                	push   (%eax)
  102ef2:	68 d5 63 10 00       	push   $0x1063d5
  102ef7:	e8 34 1c 00 00       	call   104b30 <printf>
  102efc:	83 c4 10             	add    $0x10,%esp
  102eff:	39 1d 2c d9 10 00    	cmp    %ebx,0x10d92c
  102f05:	7f d9                	jg     102ee0 <cmd_help+0x20>
  102f07:	8b 5d fc             	mov    -0x4(%ebp),%ebx
  102f0a:	c9                   	leave
  102f0b:	c3                   	ret
  102f0c:	8d 74 26 00          	lea    0x0(%esi,%eiz,1),%esi

00102f10 <cmd_echo>:
  102f10:	55                   	push   %ebp
  102f11:	89 e5                	mov    %esp,%ebp
  102f13:	57                   	push   %edi
  102f14:	56                   	push   %esi
  102f15:	31 f6                	xor    %esi,%esi
  102f17:	53                   	push   %ebx
  102f18:	83 ec 1c             	sub    $0x1c,%esp
  102f1b:	8b 5d 08             	mov    0x8(%ebp),%ebx
  102f1e:	8b 7d 0c             	mov    0xc(%ebp),%edi
  102f21:	8d 43 ff             	lea    -0x1(%ebx),%eax
  102f24:	89 45 e4             	mov    %eax,-0x1c(%ebp)
  102f27:	85 db                	test   %ebx,%ebx
  102f29:	7e 34                	jle    102f5f <cmd_echo+0x4f>
  102f2b:	2e 8d 74 26 00       	lea    %cs:0x0(%esi,%eiz,1),%esi
  102f30:	83 ec 08             	sub    $0x8,%esp
  102f33:	ff 34 b7             	push   (%edi,%esi,4)
  102f36:	68 e0 63 10 00       	push   $0x1063e0
  102f3b:	e8 f0 1b 00 00       	call   104b30 <printf>
  102f40:	83 c4 10             	add    $0x10,%esp
  102f43:	39 75 e4             	cmp    %esi,-0x1c(%ebp)
  102f46:	7e 10                	jle    102f58 <cmd_echo+0x48>
  102f48:	83 ec 0c             	sub    $0xc,%esp
  102f4b:	68 1a 64 10 00       	push   $0x10641a
  102f50:	e8 db 1b 00 00       	call   104b30 <printf>
  102f55:	83 c4 10             	add    $0x10,%esp
  102f58:	83 c6 01             	add    $0x1,%esi
  102f5b:	39 f3                	cmp    %esi,%ebx
  102f5d:	75 d1                	jne    102f30 <cmd_echo+0x20>
  102f5f:	c7 45 08 30 65 10 00 	movl   $0x106530,0x8(%ebp)
  102f66:	8d 65 f4             	lea    -0xc(%ebp),%esp
  102f69:	5b                   	pop    %ebx
  102f6a:	5e                   	pop    %esi
  102f6b:	5f                   	pop    %edi
  102f6c:	5d                   	pop    %ebp
  102f6d:	e9 be 1b 00 00       	jmp    104b30 <printf>
  102f72:	2e 8d b4 26 00 00 00 	lea    %cs:0x0(%esi,%eiz,1),%esi
  102f79:	00 
  102f7a:	8d b6 00 00 00 00    	lea    0x0(%esi),%esi

00102f80 <cmd_clear>:
  102f80:	55                   	push   %ebp
  102f81:	89 e5                	mov    %esp,%ebp
  102f83:	83 ec 14             	sub    $0x14,%esp
  102f86:	6a 19                	push   $0x19
  102f88:	e8 e3 d4 ff ff       	call   100470 <terminal_scrolln>
  102f8d:	83 c4 10             	add    $0x10,%esp
  102f90:	c7 45 0c 00 00 00 00 	movl   $0x0,0xc(%ebp)
  102f97:	c7 05 20 d9 10 00 00 	movl   $0x0,0x10d920
  102f9e:	00 00 00 
  102fa1:	c7 45 08 00 00 00 00 	movl   $0x0,0x8(%ebp)
  102fa8:	c9                   	leave
  102fa9:	e9 b2 d2 ff ff       	jmp    100260 <terminal_set_cursor>
  102fae:	66 90                	xchg   %ax,%ax

00102fb0 <paging_test>:
  102fb0:	e9 cb 16 00 00       	jmp    104680 <test_paging>
  102fb5:	2e 8d b4 26 00 00 00 	lea    %cs:0x0(%esi,%eiz,1),%esi
  102fbc:	00 
  102fbd:	8d 76 00             	lea    0x0(%esi),%esi

00102fc0 <vm_test>:
  102fc0:	e9 1b 18 00 00       	jmp    1047e0 <test_vm>
  102fc5:	2e 8d b4 26 00 00 00 	lea    %cs:0x0(%esi,%eiz,1),%esi
  102fcc:	00 
  102fcd:	8d 76 00             	lea    0x0(%esi),%esi

00102fd0 <cmd_maze>:
  102fd0:	e9 3b 0d 00 00       	jmp    103d10 <generate_maze>
  102fd5:	2e 8d b4 26 00 00 00 	lea    %cs:0x0(%esi,%eiz,1),%esi
  102fdc:	00 
  102fdd:	8d 76 00             	lea    0x0(%esi),%esi

00102fe0 <cmd_display>:
  102fe0:	e9 9b 12 00 00       	jmp    104280 <display_maze>
  102fe5:	2e 8d b4 26 00 00 00 	lea    %cs:0x0(%esi,%eiz,1),%esi
  102fec:	00 
  102fed:	8d 76 00             	lea    0x0(%esi),%esi

00102ff0 <cmd_solve>:
  102ff0:	e9 9b 12 00 00       	jmp    104290 <solve_maze>
  102ff5:	2e 8d b4 26 00 00 00 	lea    %cs:0x0(%esi,%eiz,1),%esi
  102ffc:	00 
  102ffd:	8d 76 00             	lea    0x0(%esi),%esi

00103000 <hush_register_command>:
  103000:	a1 2c d9 10 00       	mov    0x10d92c,%eax
  103005:	83 f8 13             	cmp    $0x13,%eax
  103008:	7f 1e                	jg     103028 <hush_register_command+0x28>
  10300a:	55                   	push   %ebp
  10300b:	8d 50 01             	lea    0x1(%eax),%edx
  10300e:	89 15 2c d9 10 00    	mov    %edx,0x10d92c
  103014:	89 e5                	mov    %esp,%ebp
  103016:	8b 55 08             	mov    0x8(%ebp),%edx
  103019:	89 14 85 40 d9 10 00 	mov    %edx,0x10d940(,%eax,4)
  103020:	5d                   	pop    %ebp
  103021:	c3                   	ret
  103022:	8d b6 00 00 00 00    	lea    0x0(%esi),%esi
  103028:	c3                   	ret
  103029:	8d b4 26 00 00 00 00 	lea    0x0(%esi,%eiz,1),%esi

00103030 <hush_lookup_registry>:
  103030:	55                   	push   %ebp
  103031:	89 e5                	mov    %esp,%ebp
  103033:	57                   	push   %edi
  103034:	56                   	push   %esi
  103035:	53                   	push   %ebx
  103036:	83 ec 0c             	sub    $0xc,%esp
  103039:	a1 2c d9 10 00       	mov    0x10d92c,%eax
  10303e:	8b 7d 08             	mov    0x8(%ebp),%edi
  103041:	85 c0                	test   %eax,%eax
  103043:	7e 6b                	jle    1030b0 <hush_lookup_registry+0x80>
  103045:	31 db                	xor    %ebx,%ebx
  103047:	eb 12                	jmp    10305b <hush_lookup_registry+0x2b>
  103049:	8d b4 26 00 00 00 00 	lea    0x0(%esi,%eiz,1),%esi
  103050:	83 c3 01             	add    $0x1,%ebx
  103053:	39 1d 2c d9 10 00    	cmp    %ebx,0x10d92c
  103059:	7e 55                	jle    1030b0 <hush_lookup_registry+0x80>
  10305b:	83 ec 08             	sub    $0x8,%esp
  10305e:	6a 0a                	push   $0xa
  103060:	57                   	push   %edi
  103061:	e8 6a f7 ff ff       	call   1027d0 <strnlen>
  103066:	83 c4 0c             	add    $0xc,%esp
  103069:	50                   	push   %eax
  10306a:	89 c6                	mov    %eax,%esi
  10306c:	8b 04 9d 40 d9 10 00 	mov    0x10d940(,%ebx,4),%eax
  103073:	57                   	push   %edi
  103074:	ff 30                	push   (%eax)
  103076:	e8 85 f7 ff ff       	call   102800 <strncmp>
  10307b:	83 c4 10             	add    $0x10,%esp
  10307e:	85 c0                	test   %eax,%eax
  103080:	75 ce                	jne    103050 <hush_lookup_registry+0x20>
  103082:	8b 04 9d 40 d9 10 00 	mov    0x10d940(,%ebx,4),%eax
  103089:	83 ec 08             	sub    $0x8,%esp
  10308c:	6a 0a                	push   $0xa
  10308e:	ff 30                	push   (%eax)
  103090:	e8 3b f7 ff ff       	call   1027d0 <strnlen>
  103095:	83 c4 10             	add    $0x10,%esp
  103098:	39 f0                	cmp    %esi,%eax
  10309a:	75 b4                	jne    103050 <hush_lookup_registry+0x20>
  10309c:	8b 04 9d 40 d9 10 00 	mov    0x10d940(,%ebx,4),%eax
  1030a3:	8d 65 f4             	lea    -0xc(%ebp),%esp
  1030a6:	5b                   	pop    %ebx
  1030a7:	5e                   	pop    %esi
  1030a8:	5f                   	pop    %edi
  1030a9:	5d                   	pop    %ebp
  1030aa:	c3                   	ret
  1030ab:	2e 8d 74 26 00       	lea    %cs:0x0(%esi,%eiz,1),%esi
  1030b0:	83 ec 0c             	sub    $0xc,%esp
  1030b3:	68 e3 63 10 00       	push   $0x1063e3
  1030b8:	e8 73 1a 00 00       	call   104b30 <printf>
  1030bd:	83 c4 10             	add    $0x10,%esp
  1030c0:	8d 65 f4             	lea    -0xc(%ebp),%esp
  1030c3:	31 c0                	xor    %eax,%eax
  1030c5:	5b                   	pop    %ebx
  1030c6:	5e                   	pop    %esi
  1030c7:	5f                   	pop    %edi
  1030c8:	5d                   	pop    %ebp
  1030c9:	c3                   	ret
  1030ca:	8d b6 00 00 00 00    	lea    0x0(%esi),%esi

001030d0 <hush_init>:
  1030d0:	55                   	push   %ebp
  1030d1:	b8 3c d7 10 00       	mov    $0x10d73c,%eax
  1030d6:	89 e5                	mov    %esp,%ebp
  1030d8:	83 ec 08             	sub    $0x8,%esp
  1030db:	2e 8d 74 26 00       	lea    %cs:0x0(%esi,%eiz,1),%esi
  1030e0:	c7 00 00 00 00 00    	movl   $0x0,(%eax)
  1030e6:	83 c0 08             	add    $0x8,%eax
  1030e9:	c7 40 fc 00 00 00 00 	movl   $0x0,-0x4(%eax)
  1030f0:	3d 8c d7 10 00       	cmp    $0x10d78c,%eax
  1030f5:	75 e9                	jne    1030e0 <hush_init+0x10>
  1030f7:	31 c0                	xor    %eax,%eax
  1030f9:	ba 2e d6 10 00       	mov    $0x10d62e,%edx
  1030fe:	c7 05 00 d6 10 00 00 	movl   $0x0,0x10d600
  103105:	00 00 00 
  103108:	c7 05 04 d6 10 00 00 	movl   $0x0,0x10d604
  10310f:	00 00 00 
  103112:	66 a3 08 d6 10 00    	mov    %ax,0x10d608
  103118:	2e 8d b4 26 00 00 00 	lea    %cs:0x0(%esi,%eiz,1),%esi
  10311f:	00 
  103120:	8d 42 e2             	lea    -0x1e(%edx),%eax
  103123:	2e 8d b4 26 00 00 00 	lea    %cs:0x0(%esi,%eiz,1),%esi
  10312a:	00 
  10312b:	2e 8d 74 26 00       	lea    %cs:0x0(%esi,%eiz,1),%esi
  103130:	c6 00 00             	movb   $0x0,(%eax)
  103133:	83 c0 02             	add    $0x2,%eax
  103136:	c6 40 ff 00          	movb   $0x0,-0x1(%eax)
  10313a:	39 d0                	cmp    %edx,%eax
  10313c:	75 f2                	jne    103130 <hush_init+0x60>
  10313e:	8d 50 1e             	lea    0x1e(%eax),%edx
  103141:	3d 3c d7 10 00       	cmp    $0x10d73c,%eax
  103146:	75 d8                	jne    103120 <hush_init+0x50>
  103148:	a1 2c d9 10 00       	mov    0x10d92c,%eax
  10314d:	c7 05 24 d9 10 00 00 	movl   $0x0,0x10d924
  103154:	00 00 00 
  103157:	c7 05 20 d9 10 00 00 	movl   $0x0,0x10d920
  10315e:	00 00 00 
  103161:	c7 05 0c d6 10 00 00 	movl   $0x0,0x10d60c
  103168:	00 00 00 
  10316b:	c7 05 28 d9 10 00 01 	movl   $0x1,0x10d928
  103172:	00 00 00 
  103175:	83 f8 13             	cmp    $0x13,%eax
  103178:	0f 8f ca 00 00 00    	jg     103248 <hush_init+0x178>
  10317e:	c7 04 85 40 d9 10 00 	movl   $0x107060,0x10d940(,%eax,4)
  103185:	60 70 10 00 
  103189:	8d 50 01             	lea    0x1(%eax),%edx
  10318c:	89 15 2c d9 10 00    	mov    %edx,0x10d92c
  103192:	83 fa 14             	cmp    $0x14,%edx
  103195:	0f 84 ad 00 00 00    	je     103248 <hush_init+0x178>
  10319b:	c7 04 95 40 d9 10 00 	movl   $0x107054,0x10d940(,%edx,4)
  1031a2:	54 70 10 00 
  1031a6:	8d 48 02             	lea    0x2(%eax),%ecx
  1031a9:	89 0d 2c d9 10 00    	mov    %ecx,0x10d92c
  1031af:	83 f9 14             	cmp    $0x14,%ecx
  1031b2:	0f 84 90 00 00 00    	je     103248 <hush_init+0x178>
  1031b8:	c7 04 8d 40 d9 10 00 	movl   $0x107048,0x10d940(,%ecx,4)
  1031bf:	48 70 10 00 
  1031c3:	8d 50 03             	lea    0x3(%eax),%edx
  1031c6:	89 15 2c d9 10 00    	mov    %edx,0x10d92c
  1031cc:	83 fa 14             	cmp    $0x14,%edx
  1031cf:	74 77                	je     103248 <hush_init+0x178>
  1031d1:	c7 04 95 40 d9 10 00 	movl   $0x10703c,0x10d940(,%edx,4)
  1031d8:	3c 70 10 00 
  1031dc:	8d 48 04             	lea    0x4(%eax),%ecx
  1031df:	89 0d 2c d9 10 00    	mov    %ecx,0x10d92c
  1031e5:	83 f9 14             	cmp    $0x14,%ecx
  1031e8:	74 5e                	je     103248 <hush_init+0x178>
  1031ea:	c7 04 8d 40 d9 10 00 	movl   $0x107030,0x10d940(,%ecx,4)
  1031f1:	30 70 10 00 
  1031f5:	8d 50 05             	lea    0x5(%eax),%edx
  1031f8:	89 15 2c d9 10 00    	mov    %edx,0x10d92c
  1031fe:	83 fa 14             	cmp    $0x14,%edx
  103201:	74 45                	je     103248 <hush_init+0x178>
  103203:	c7 04 95 40 d9 10 00 	movl   $0x107024,0x10d940(,%edx,4)
  10320a:	24 70 10 00 
  10320e:	8d 48 06             	lea    0x6(%eax),%ecx
  103211:	89 0d 2c d9 10 00    	mov    %ecx,0x10d92c
  103217:	83 f9 14             	cmp    $0x14,%ecx
  10321a:	74 2c                	je     103248 <hush_init+0x178>
  10321c:	c7 04 8d 40 d9 10 00 	movl   $0x107018,0x10d940(,%ecx,4)
  103223:	18 70 10 00 
  103227:	8d 50 07             	lea    0x7(%eax),%edx
  10322a:	89 15 2c d9 10 00    	mov    %edx,0x10d92c
  103230:	83 fa 14             	cmp    $0x14,%edx
  103233:	74 13                	je     103248 <hush_init+0x178>
  103235:	c7 04 95 40 d9 10 00 	movl   $0x10700c,0x10d940(,%edx,4)
  10323c:	0c 70 10 00 
  103240:	83 c0 08             	add    $0x8,%eax
  103243:	a3 2c d9 10 00       	mov    %eax,0x10d92c
  103248:	83 ec 0c             	sub    $0xc,%esp
  10324b:	68 fb 63 10 00       	push   $0x1063fb
  103250:	e8 db 18 00 00       	call   104b30 <printf>
  103255:	c7 04 24 b8 5b 10 00 	movl   $0x105bb8,(%esp)
  10325c:	e8 cf 18 00 00       	call   104b30 <printf>
  103261:	c7 04 24 19 64 10 00 	movl   $0x106419,(%esp)
  103268:	e8 c3 18 00 00       	call   104b30 <printf>
  10326d:	c9                   	leave
  10326e:	c3                   	ret
  10326f:	90                   	nop

00103270 <hush_run>:
  103270:	c3                   	ret
  103271:	2e 8d b4 26 00 00 00 	lea    %cs:0x0(%esi,%eiz,1),%esi
  103278:	00 
  103279:	8d b4 26 00 00 00 00 	lea    0x0(%esi,%eiz,1),%esi

00103280 <hush_execute_command>:
  103280:	55                   	push   %ebp
  103281:	89 e5                	mov    %esp,%ebp
  103283:	57                   	push   %edi
  103284:	56                   	push   %esi
  103285:	53                   	push   %ebx
  103286:	83 ec 3c             	sub    $0x3c,%esp
  103289:	a1 0c d6 10 00       	mov    0x10d60c,%eax
  10328e:	85 c0                	test   %eax,%eax
  103290:	78 66                	js     1032f8 <hush_execute_command+0x78>
  103292:	83 ec 0c             	sub    $0xc,%esp
  103295:	68 00 d6 10 00       	push   $0x10d600
  10329a:	e8 91 fd ff ff       	call   103030 <hush_lookup_registry>
  10329f:	83 c4 10             	add    $0x10,%esp
  1032a2:	89 c3                	mov    %eax,%ebx
  1032a4:	85 c0                	test   %eax,%eax
  1032a6:	74 78                	je     103320 <hush_execute_command+0xa0>
  1032a8:	8b 35 0c d6 10 00    	mov    0x10d60c,%esi
  1032ae:	8d 7d c0             	lea    -0x40(%ebp),%edi
  1032b1:	85 f6                	test   %esi,%esi
  1032b3:	7e 27                	jle    1032dc <hush_execute_command+0x5c>
  1032b5:	8d 7d c0             	lea    -0x40(%ebp),%edi
  1032b8:	b9 10 d6 10 00       	mov    $0x10d610,%ecx
  1032bd:	89 fa                	mov    %edi,%edx
  1032bf:	8d 04 b7             	lea    (%edi,%esi,4),%eax
  1032c2:	2e 8d b4 26 00 00 00 	lea    %cs:0x0(%esi,%eiz,1),%esi
  1032c9:	00 
  1032ca:	8d b6 00 00 00 00    	lea    0x0(%esi),%esi
  1032d0:	89 0a                	mov    %ecx,(%edx)
  1032d2:	83 c2 04             	add    $0x4,%edx
  1032d5:	83 c1 1e             	add    $0x1e,%ecx
  1032d8:	39 c2                	cmp    %eax,%edx
  1032da:	75 f4                	jne    1032d0 <hush_execute_command+0x50>
  1032dc:	83 ec 08             	sub    $0x8,%esp
  1032df:	57                   	push   %edi
  1032e0:	56                   	push   %esi
  1032e1:	ff 53 08             	call   *0x8(%ebx)
  1032e4:	31 c0                	xor    %eax,%eax
  1032e6:	83 c4 10             	add    $0x10,%esp
  1032e9:	8d 65 f4             	lea    -0xc(%ebp),%esp
  1032ec:	5b                   	pop    %ebx
  1032ed:	5e                   	pop    %esi
  1032ee:	5f                   	pop    %edi
  1032ef:	5d                   	pop    %ebp
  1032f0:	c3                   	ret
  1032f1:	8d b4 26 00 00 00 00 	lea    0x0(%esi,%eiz,1),%esi
  1032f8:	83 ec 04             	sub    $0x4,%esp
  1032fb:	50                   	push   %eax
  1032fc:	68 1c 64 10 00       	push   $0x10641c
  103301:	6a 02                	push   $0x2
  103303:	e8 18 17 00 00       	call   104a20 <logf>
  103308:	83 c4 10             	add    $0x10,%esp
  10330b:	8d 65 f4             	lea    -0xc(%ebp),%esp
  10330e:	b8 02 00 00 00       	mov    $0x2,%eax
  103313:	5b                   	pop    %ebx
  103314:	5e                   	pop    %esi
  103315:	5f                   	pop    %edi
  103316:	5d                   	pop    %ebp
  103317:	c3                   	ret
  103318:	2e 8d b4 26 00 00 00 	lea    %cs:0x0(%esi,%eiz,1),%esi
  10331f:	00 
  103320:	b8 03 00 00 00       	mov    $0x3,%eax
  103325:	eb c2                	jmp    1032e9 <hush_execute_command+0x69>
  103327:	2e 8d b4 26 00 00 00 	lea    %cs:0x0(%esi,%eiz,1),%esi
  10332e:	00 
  10332f:	90                   	nop

00103330 <parse_command_buffer>:
  103330:	55                   	push   %ebp
  103331:	89 e5                	mov    %esp,%ebp
  103333:	57                   	push   %edi
  103334:	56                   	push   %esi
  103335:	be 3c d7 10 00       	mov    $0x10d73c,%esi
  10333a:	53                   	push   %ebx
  10333b:	83 ec 1c             	sub    $0x1c,%esp
  10333e:	0f be 05 3c d7 10 00 	movsbl 0x10d73c,%eax
  103345:	84 c0                	test   %al,%al
  103347:	74 2a                	je     103373 <parse_command_buffer+0x43>
  103349:	8d b4 26 00 00 00 00 	lea    0x0(%esi,%eiz,1),%esi
  103350:	83 ec 0c             	sub    $0xc,%esp
  103353:	50                   	push   %eax
  103354:	e8 e7 e1 ff ff       	call   101540 <iswhitespace>
  103359:	83 c4 10             	add    $0x10,%esp
  10335c:	85 c0                	test   %eax,%eax
  10335e:	74 28                	je     103388 <parse_command_buffer+0x58>
  103360:	81 fe 8c d7 10 00    	cmp    $0x10d78c,%esi
  103366:	73 20                	jae    103388 <parse_command_buffer+0x58>
  103368:	0f be 46 01          	movsbl 0x1(%esi),%eax
  10336c:	83 c6 01             	add    $0x1,%esi
  10336f:	84 c0                	test   %al,%al
  103371:	75 dd                	jne    103350 <parse_command_buffer+0x20>
  103373:	c7 45 e4 ff ff ff ff 	movl   $0xffffffff,-0x1c(%ebp)
  10337a:	b8 ff ff ff ff       	mov    $0xffffffff,%eax
  10337f:	e9 fe 00 00 00       	jmp    103482 <parse_command_buffer+0x152>
  103384:	8d 74 26 00          	lea    0x0(%esi,%eiz,1),%esi
  103388:	0f be 06             	movsbl (%esi),%eax
  10338b:	81 fe 8c d7 10 00    	cmp    $0x10d78c,%esi
  103391:	73 e0                	jae    103373 <parse_command_buffer+0x43>
  103393:	84 c0                	test   %al,%al
  103395:	74 dc                	je     103373 <parse_command_buffer+0x43>
  103397:	bf 00 d6 10 00       	mov    $0x10d600,%edi
  10339c:	eb 1a                	jmp    1033b8 <parse_command_buffer+0x88>
  10339e:	66 90                	xchg   %ax,%ax
  1033a0:	81 ff 09 d6 10 00    	cmp    $0x10d609,%edi
  1033a6:	74 20                	je     1033c8 <parse_command_buffer+0x98>
  1033a8:	81 fe 8c d7 10 00    	cmp    $0x10d78c,%esi
  1033ae:	73 18                	jae    1033c8 <parse_command_buffer+0x98>
  1033b0:	a4                   	movsb  %ds:(%esi),%es:(%edi)
  1033b1:	0f be 06             	movsbl (%esi),%eax
  1033b4:	84 c0                	test   %al,%al
  1033b6:	74 10                	je     1033c8 <parse_command_buffer+0x98>
  1033b8:	83 ec 0c             	sub    $0xc,%esp
  1033bb:	50                   	push   %eax
  1033bc:	e8 7f e1 ff ff       	call   101540 <iswhitespace>
  1033c1:	83 c4 10             	add    $0x10,%esp
  1033c4:	85 c0                	test   %eax,%eax
  1033c6:	74 d8                	je     1033a0 <parse_command_buffer+0x70>
  1033c8:	c6 07 00             	movb   $0x0,(%edi)
  1033cb:	0f be 16             	movsbl (%esi),%edx
  1033ce:	81 fe 8c d7 10 00    	cmp    $0x10d78c,%esi
  1033d4:	0f 83 be 00 00 00    	jae    103498 <parse_command_buffer+0x168>
  1033da:	84 d2                	test   %dl,%dl
  1033dc:	0f 84 b6 00 00 00    	je     103498 <parse_command_buffer+0x168>
  1033e2:	c7 45 e0 10 d6 10 00 	movl   $0x10d610,-0x20(%ebp)
  1033e9:	c7 45 e4 00 00 00 00 	movl   $0x0,-0x1c(%ebp)
  1033f0:	eb 15                	jmp    103407 <parse_command_buffer+0xd7>
  1033f2:	8d b6 00 00 00 00    	lea    0x0(%esi),%esi
  1033f8:	85 c0                	test   %eax,%eax
  1033fa:	74 1f                	je     10341b <parse_command_buffer+0xeb>
  1033fc:	0f be 56 01          	movsbl 0x1(%esi),%edx
  103400:	83 c6 01             	add    $0x1,%esi
  103403:	84 d2                	test   %dl,%dl
  103405:	74 79                	je     103480 <parse_command_buffer+0x150>
  103407:	83 ec 0c             	sub    $0xc,%esp
  10340a:	52                   	push   %edx
  10340b:	e8 30 e1 ff ff       	call   101540 <iswhitespace>
  103410:	83 c4 10             	add    $0x10,%esp
  103413:	81 fe 8c d7 10 00    	cmp    $0x10d78c,%esi
  103419:	72 dd                	jb     1033f8 <parse_command_buffer+0xc8>
  10341b:	0f be 06             	movsbl (%esi),%eax
  10341e:	84 c0                	test   %al,%al
  103420:	74 5e                	je     103480 <parse_command_buffer+0x150>
  103422:	83 7d e4 0a          	cmpl   $0xa,-0x1c(%ebp)
  103426:	74 58                	je     103480 <parse_command_buffer+0x150>
  103428:	8b 7d e0             	mov    -0x20(%ebp),%edi
  10342b:	31 db                	xor    %ebx,%ebx
  10342d:	eb 15                	jmp    103444 <parse_command_buffer+0x114>
  10342f:	90                   	nop
  103430:	83 fb 1d             	cmp    $0x1d,%ebx
  103433:	74 28                	je     10345d <parse_command_buffer+0x12d>
  103435:	84 d2                	test   %dl,%dl
  103437:	74 24                	je     10345d <parse_command_buffer+0x12d>
  103439:	a4                   	movsb  %ds:(%esi),%es:(%edi)
  10343a:	83 c3 01             	add    $0x1,%ebx
  10343d:	0f be 06             	movsbl (%esi),%eax
  103440:	84 c0                	test   %al,%al
  103442:	74 64                	je     1034a8 <parse_command_buffer+0x178>
  103444:	83 ec 0c             	sub    $0xc,%esp
  103447:	50                   	push   %eax
  103448:	e8 f3 e0 ff ff       	call   101540 <iswhitespace>
  10344d:	83 c4 10             	add    $0x10,%esp
  103450:	81 fe 8c d7 10 00    	cmp    $0x10d78c,%esi
  103456:	0f 92 c2             	setb   %dl
  103459:	85 c0                	test   %eax,%eax
  10345b:	74 d3                	je     103430 <parse_command_buffer+0x100>
  10345d:	89 d0                	mov    %edx,%eax
  10345f:	c6 07 00             	movb   $0x0,(%edi)
  103462:	0f be 16             	movsbl (%esi),%edx
  103465:	83 45 e4 01          	addl   $0x1,-0x1c(%ebp)
  103469:	83 45 e0 1e          	addl   $0x1e,-0x20(%ebp)
  10346d:	84 d2                	test   %dl,%dl
  10346f:	74 0f                	je     103480 <parse_command_buffer+0x150>
  103471:	84 c0                	test   %al,%al
  103473:	75 92                	jne    103407 <parse_command_buffer+0xd7>
  103475:	2e 8d b4 26 00 00 00 	lea    %cs:0x0(%esi,%eiz,1),%esi
  10347c:	00 
  10347d:	8d 76 00             	lea    0x0(%esi),%esi
  103480:	31 c0                	xor    %eax,%eax
  103482:	8b 4d e4             	mov    -0x1c(%ebp),%ecx
  103485:	89 0d 0c d6 10 00    	mov    %ecx,0x10d60c
  10348b:	8d 65 f4             	lea    -0xc(%ebp),%esp
  10348e:	5b                   	pop    %ebx
  10348f:	5e                   	pop    %esi
  103490:	5f                   	pop    %edi
  103491:	5d                   	pop    %ebp
  103492:	c3                   	ret
  103493:	2e 8d 74 26 00       	lea    %cs:0x0(%esi,%eiz,1),%esi
  103498:	c7 45 e4 00 00 00 00 	movl   $0x0,-0x1c(%ebp)
  10349f:	eb df                	jmp    103480 <parse_command_buffer+0x150>
  1034a1:	8d b4 26 00 00 00 00 	lea    0x0(%esi,%eiz,1),%esi
  1034a8:	81 fe 8c d7 10 00    	cmp    $0x10d78c,%esi
  1034ae:	0f 92 c0             	setb   %al
  1034b1:	eb ac                	jmp    10345f <parse_command_buffer+0x12f>
  1034b3:	2e 8d b4 26 00 00 00 	lea    %cs:0x0(%esi,%eiz,1),%esi
  1034ba:	00 
  1034bb:	2e 8d 74 26 00       	lea    %cs:0x0(%esi,%eiz,1),%esi

001034c0 <hush_handle_keypress>:
  1034c0:	55                   	push   %ebp
  1034c1:	89 e5                	mov    %esp,%ebp
  1034c3:	83 ec 18             	sub    $0x18,%esp
  1034c6:	8b 55 08             	mov    0x8(%ebp),%edx
  1034c9:	80 fa 0a             	cmp    $0xa,%dl
  1034cc:	74 62                	je     103530 <hush_handle_keypress+0x70>
  1034ce:	80 fa 08             	cmp    $0x8,%dl
  1034d1:	75 1d                	jne    1034f0 <hush_handle_keypress+0x30>
  1034d3:	a1 24 d9 10 00       	mov    0x10d924,%eax
  1034d8:	85 c0                	test   %eax,%eax
  1034da:	7e 0f                	jle    1034eb <hush_handle_keypress+0x2b>
  1034dc:	83 e8 01             	sub    $0x1,%eax
  1034df:	83 2d 20 d9 10 00 01 	subl   $0x1,0x10d920
  1034e6:	a3 24 d9 10 00       	mov    %eax,0x10d924
  1034eb:	c9                   	leave
  1034ec:	c3                   	ret
  1034ed:	8d 76 00             	lea    0x0(%esi),%esi
  1034f0:	83 ec 0c             	sub    $0xc,%esp
  1034f3:	0f be c2             	movsbl %dl,%eax
  1034f6:	89 55 f4             	mov    %edx,-0xc(%ebp)
  1034f9:	50                   	push   %eax
  1034fa:	e8 21 e0 ff ff       	call   101520 <isprintable>
  1034ff:	83 c4 10             	add    $0x10,%esp
  103502:	85 c0                	test   %eax,%eax
  103504:	74 e5                	je     1034eb <hush_handle_keypress+0x2b>
  103506:	a1 24 d9 10 00       	mov    0x10d924,%eax
  10350b:	83 f8 4e             	cmp    $0x4e,%eax
  10350e:	7f db                	jg     1034eb <hush_handle_keypress+0x2b>
  103510:	8b 55 f4             	mov    -0xc(%ebp),%edx
  103513:	8d 48 01             	lea    0x1(%eax),%ecx
  103516:	83 05 20 d9 10 00 01 	addl   $0x1,0x10d920
  10351d:	89 0d 24 d9 10 00    	mov    %ecx,0x10d924
  103523:	88 90 3c d7 10 00    	mov    %dl,0x10d73c(%eax)
  103529:	c9                   	leave
  10352a:	c3                   	ret
  10352b:	2e 8d 74 26 00       	lea    %cs:0x0(%esi,%eiz,1),%esi
  103530:	83 ec 0c             	sub    $0xc,%esp
  103533:	68 30 65 10 00       	push   $0x106530
  103538:	e8 f3 15 00 00       	call   104b30 <printf>
  10353d:	a1 24 d9 10 00       	mov    0x10d924,%eax
  103542:	83 c4 10             	add    $0x10,%esp
  103545:	85 c0                	test   %eax,%eax
  103547:	7f 27                	jg     103570 <hush_handle_keypress+0xb0>
  103549:	c7 05 24 d9 10 00 00 	movl   $0x0,0x10d924
  103550:	00 00 00 
  103553:	c7 05 20 d9 10 00 00 	movl   $0x0,0x10d920
  10355a:	00 00 00 
  10355d:	c7 45 08 19 64 10 00 	movl   $0x106419,0x8(%ebp)
  103564:	c9                   	leave
  103565:	e9 c6 15 00 00       	jmp    104b30 <printf>
  10356a:	8d b6 00 00 00 00    	lea    0x0(%esi),%esi
  103570:	c6 80 3c d7 10 00 00 	movb   $0x0,0x10d73c(%eax)
  103577:	e8 b4 fd ff ff       	call   103330 <parse_command_buffer>
  10357c:	e8 ff fc ff ff       	call   103280 <hush_execute_command>
  103581:	eb c6                	jmp    103549 <hush_handle_keypress+0x89>
  103583:	66 90                	xchg   %ax,%ax
  103585:	66 90                	xchg   %ax,%ax
  103587:	66 90                	xchg   %ax,%ax
  103589:	66 90                	xchg   %ax,%ax
  10358b:	66 90                	xchg   %ax,%ax
  10358d:	66 90                	xchg   %ax,%ax
  10358f:	66 90                	xchg   %ax,%ax
  103591:	66 90                	xchg   %ax,%ax
  103593:	66 90                	xchg   %ax,%ax
  103595:	66 90                	xchg   %ax,%ax
  103597:	66 90                	xchg   %ax,%ax
  103599:	66 90                	xchg   %ax,%ax
  10359b:	66 90                	xchg   %ax,%ax
  10359d:	66 90                	xchg   %ax,%ax
  10359f:	90                   	nop

001035a0 <maze_init>:
  1035a0:	55                   	push   %ebp
  1035a1:	b9 c0 d9 10 00       	mov    $0x10d9c0,%ecx
  1035a6:	ba 10 da 10 00       	mov    $0x10da10,%edx
  1035ab:	89 e5                	mov    %esp,%ebp
  1035ad:	53                   	push   %ebx
  1035ae:	83 ec 04             	sub    $0x4,%esp
  1035b1:	c7 05 a0 d9 10 00 01 	movl   $0x1,0x10d9a0
  1035b8:	00 00 00 
  1035bb:	2e 8d 74 26 00       	lea    %cs:0x0(%esi,%eiz,1),%esi
  1035c0:	89 d3                	mov    %edx,%ebx
  1035c2:	89 c8                	mov    %ecx,%eax
  1035c4:	29 cb                	sub    %ecx,%ebx
  1035c6:	83 e3 04             	and    $0x4,%ebx
  1035c9:	74 15                	je     1035e0 <maze_init+0x40>
  1035cb:	8d 41 04             	lea    0x4(%ecx),%eax
  1035ce:	c7 01 20 20 20 20    	movl   $0x20202020,(%ecx)
  1035d4:	39 d0                	cmp    %edx,%eax
  1035d6:	74 1c                	je     1035f4 <maze_init+0x54>
  1035d8:	2e 8d b4 26 00 00 00 	lea    %cs:0x0(%esi,%eiz,1),%esi
  1035df:	00 
  1035e0:	c7 00 20 20 20 20    	movl   $0x20202020,(%eax)
  1035e6:	83 c0 08             	add    $0x8,%eax
  1035e9:	c7 40 fc 20 20 20 20 	movl   $0x20202020,-0x4(%eax)
  1035f0:	39 d0                	cmp    %edx,%eax
  1035f2:	75 ec                	jne    1035e0 <maze_init+0x40>
  1035f4:	83 c1 50             	add    $0x50,%ecx
  1035f7:	8d 50 50             	lea    0x50(%eax),%edx
  1035fa:	3d f0 e0 10 00       	cmp    $0x10e0f0,%eax
  1035ff:	75 bf                	jne    1035c0 <maze_init+0x20>
  103601:	e8 6a d4 ff ff       	call   100a70 <timer_ticks>
  103606:	83 ec 0c             	sub    $0xc,%esp
  103609:	50                   	push   %eax
  10360a:	e8 c1 df ff ff       	call   1015d0 <seed_rng>
  10360f:	ba d4 e2 10 00       	mov    $0x10e2d4,%edx
  103614:	83 c4 10             	add    $0x10,%esp
  103617:	8d 82 2c fe ff ff    	lea    -0x1d4(%edx),%eax
  10361d:	8d 76 00             	lea    0x0(%esi),%esi
  103620:	c7 00 01 00 00 00    	movl   $0x1,(%eax)
  103626:	83 c0 0c             	add    $0xc,%eax
  103629:	c7 40 f8 01 00 00 00 	movl   $0x1,-0x8(%eax)
  103630:	c7 40 fc 01 00 00 00 	movl   $0x1,-0x4(%eax)
  103637:	39 d0                	cmp    %edx,%eax
  103639:	75 e5                	jne    103620 <maze_init+0x80>
  10363b:	8d 90 d4 01 00 00    	lea    0x1d4(%eax),%edx
  103641:	3d 48 f3 10 00       	cmp    $0x10f348,%eax
  103646:	75 cf                	jne    103617 <maze_init+0x77>
  103648:	8b 5d fc             	mov    -0x4(%ebp),%ebx
  10364b:	c9                   	leave
  10364c:	c3                   	ret
  10364d:	8d 76 00             	lea    0x0(%esi),%esi

00103650 <clear_display_buffer>:
  103650:	55                   	push   %ebp
  103651:	b9 c0 d9 10 00       	mov    $0x10d9c0,%ecx
  103656:	ba 10 da 10 00       	mov    $0x10da10,%edx
  10365b:	89 e5                	mov    %esp,%ebp
  10365d:	53                   	push   %ebx
  10365e:	66 90                	xchg   %ax,%ax
  103660:	89 d3                	mov    %edx,%ebx
  103662:	89 c8                	mov    %ecx,%eax
  103664:	29 cb                	sub    %ecx,%ebx
  103666:	83 e3 04             	and    $0x4,%ebx
  103669:	74 15                	je     103680 <clear_display_buffer+0x30>
  10366b:	8d 41 04             	lea    0x4(%ecx),%eax
  10366e:	c7 01 20 20 20 20    	movl   $0x20202020,(%ecx)
  103674:	39 d0                	cmp    %edx,%eax
  103676:	74 1c                	je     103694 <clear_display_buffer+0x44>
  103678:	2e 8d b4 26 00 00 00 	lea    %cs:0x0(%esi,%eiz,1),%esi
  10367f:	00 
  103680:	c7 00 20 20 20 20    	movl   $0x20202020,(%eax)
  103686:	83 c0 08             	add    $0x8,%eax
  103689:	c7 40 fc 20 20 20 20 	movl   $0x20202020,-0x4(%eax)
  103690:	39 d0                	cmp    %edx,%eax
  103692:	75 ec                	jne    103680 <clear_display_buffer+0x30>
  103694:	83 c1 50             	add    $0x50,%ecx
  103697:	8d 50 50             	lea    0x50(%eax),%edx
  10369a:	3d f0 e0 10 00       	cmp    $0x10e0f0,%eax
  10369f:	75 bf                	jne    103660 <clear_display_buffer+0x10>
  1036a1:	8b 5d fc             	mov    -0x4(%ebp),%ebx
  1036a4:	c9                   	leave
  1036a5:	c3                   	ret
  1036a6:	2e 8d b4 26 00 00 00 	lea    %cs:0x0(%esi,%eiz,1),%esi
  1036ad:	00 
  1036ae:	66 90                	xchg   %ax,%ax

001036b0 <draw_help_text>:
  1036b0:	55                   	push   %ebp
  1036b1:	89 e5                	mov    %esp,%ebp
  1036b3:	53                   	push   %ebx
  1036b4:	83 ec 10             	sub    $0x10,%esp
  1036b7:	68 dc 5b 10 00       	push   $0x105bdc
  1036bc:	e8 df f0 ff ff       	call   1027a0 <strlen>
  1036c1:	83 c4 10             	add    $0x10,%esp
  1036c4:	85 c0                	test   %eax,%eax
  1036c6:	7e 4e                	jle    103716 <draw_help_text+0x66>
  1036c8:	b9 50 00 00 00       	mov    $0x50,%ecx
  1036cd:	bb dc 5b 10 00       	mov    $0x105bdc,%ebx
  1036d2:	29 c1                	sub    %eax,%ecx
  1036d4:	89 ca                	mov    %ecx,%edx
  1036d6:	c1 ea 1f             	shr    $0x1f,%edx
  1036d9:	01 ca                	add    %ecx,%edx
  1036db:	d1 fa                	sar    $1,%edx
  1036dd:	01 d0                	add    %edx,%eax
  1036df:	29 d3                	sub    %edx,%ebx
  1036e1:	eb 2e                	jmp    103711 <draw_help_text+0x61>
  1036e3:	eb 1b                	jmp    103700 <draw_help_text+0x50>
  1036e5:	2e 8d b4 26 00 00 00 	lea    %cs:0x0(%esi,%eiz,1),%esi
  1036ec:	00 
  1036ed:	2e 8d b4 26 00 00 00 	lea    %cs:0x0(%esi,%eiz,1),%esi
  1036f4:	00 
  1036f5:	2e 8d b4 26 00 00 00 	lea    %cs:0x0(%esi,%eiz,1),%esi
  1036fc:	00 
  1036fd:	8d 76 00             	lea    0x0(%esi),%esi
  103700:	0f b6 0c 13          	movzbl (%ebx,%edx,1),%ecx
  103704:	83 c2 01             	add    $0x1,%edx
  103707:	88 8a bf d9 10 00    	mov    %cl,0x10d9bf(%edx)
  10370d:	39 c2                	cmp    %eax,%edx
  10370f:	74 05                	je     103716 <draw_help_text+0x66>
  103711:	83 fa 50             	cmp    $0x50,%edx
  103714:	75 ea                	jne    103700 <draw_help_text+0x50>
  103716:	8b 5d fc             	mov    -0x4(%ebp),%ebx
  103719:	c9                   	leave
  10371a:	c3                   	ret
  10371b:	2e 8d 74 26 00       	lea    %cs:0x0(%esi,%eiz,1),%esi

00103720 <draw_maze>:
  103720:	55                   	push   %ebp
  103721:	ba 10 da 10 00       	mov    $0x10da10,%edx
  103726:	b9 c0 d9 10 00       	mov    $0x10d9c0,%ecx
  10372b:	89 e5                	mov    %esp,%ebp
  10372d:	57                   	push   %edi
  10372e:	56                   	push   %esi
  10372f:	53                   	push   %ebx
  103730:	83 ec 4c             	sub    $0x4c,%esp
  103733:	2e 8d b4 26 00 00 00 	lea    %cs:0x0(%esi,%eiz,1),%esi
  10373a:	00 
  10373b:	2e 8d 74 26 00       	lea    %cs:0x0(%esi,%eiz,1),%esi
  103740:	89 d3                	mov    %edx,%ebx
  103742:	89 c8                	mov    %ecx,%eax
  103744:	29 cb                	sub    %ecx,%ebx
  103746:	83 e3 04             	and    $0x4,%ebx
  103749:	74 15                	je     103760 <draw_maze+0x40>
  10374b:	8d 41 04             	lea    0x4(%ecx),%eax
  10374e:	c7 01 20 20 20 20    	movl   $0x20202020,(%ecx)
  103754:	39 d0                	cmp    %edx,%eax
  103756:	74 1c                	je     103774 <draw_maze+0x54>
  103758:	2e 8d b4 26 00 00 00 	lea    %cs:0x0(%esi,%eiz,1),%esi
  10375f:	00 
  103760:	c7 00 20 20 20 20    	movl   $0x20202020,(%eax)
  103766:	83 c0 08             	add    $0x8,%eax
  103769:	c7 40 fc 20 20 20 20 	movl   $0x20202020,-0x4(%eax)
  103770:	39 d0                	cmp    %edx,%eax
  103772:	75 ec                	jne    103760 <draw_maze+0x40>
  103774:	83 c1 50             	add    $0x50,%ecx
  103777:	8d 50 50             	lea    0x50(%eax),%edx
  10377a:	3d f0 e0 10 00       	cmp    $0x10e0f0,%eax
  10377f:	75 bf                	jne    103740 <draw_maze+0x20>
  103781:	83 ec 0c             	sub    $0xc,%esp
  103784:	68 dc 5b 10 00       	push   $0x105bdc
  103789:	e8 12 f0 ff ff       	call   1027a0 <strlen>
  10378e:	83 c4 10             	add    $0x10,%esp
  103791:	89 c2                	mov    %eax,%edx
  103793:	85 c0                	test   %eax,%eax
  103795:	7e 31                	jle    1037c8 <draw_maze+0xa8>
  103797:	b9 50 00 00 00       	mov    $0x50,%ecx
  10379c:	bb dc 5b 10 00       	mov    $0x105bdc,%ebx
  1037a1:	29 c1                	sub    %eax,%ecx
  1037a3:	89 c8                	mov    %ecx,%eax
  1037a5:	c1 e8 1f             	shr    $0x1f,%eax
  1037a8:	01 c8                	add    %ecx,%eax
  1037aa:	d1 f8                	sar    $1,%eax
  1037ac:	01 c2                	add    %eax,%edx
  1037ae:	29 c3                	sub    %eax,%ebx
  1037b0:	eb 11                	jmp    1037c3 <draw_maze+0xa3>
  1037b2:	0f b6 0c 03          	movzbl (%ebx,%eax,1),%ecx
  1037b6:	83 c0 01             	add    $0x1,%eax
  1037b9:	88 88 bf d9 10 00    	mov    %cl,0x10d9bf(%eax)
  1037bf:	39 d0                	cmp    %edx,%eax
  1037c1:	74 05                	je     1037c8 <draw_maze+0xa8>
  1037c3:	83 f8 50             	cmp    $0x50,%eax
  1037c6:	75 ea                	jne    1037b2 <draw_maze+0x92>
  1037c8:	c7 45 cc 02 00 00 00 	movl   $0x2,-0x34(%ebp)
  1037cf:	c7 45 d0 a0 00 00 00 	movl   $0xa0,-0x30(%ebp)
  1037d6:	c7 45 d4 b0 ff ff ff 	movl   $0xffffffb0,-0x2c(%ebp)
  1037dd:	c7 45 b8 01 00 00 00 	movl   $0x1,-0x48(%ebp)
  1037e4:	c7 45 e0 00 00 00 00 	movl   $0x0,-0x20(%ebp)
  1037eb:	c7 45 bc 00 e1 10 00 	movl   $0x10e100,-0x44(%ebp)
  1037f2:	2e 8d b4 26 00 00 00 	lea    %cs:0x0(%esi,%eiz,1),%esi
  1037f9:	00 
  1037fa:	8d b6 00 00 00 00    	lea    0x0(%esi),%esi
  103800:	8b 55 cc             	mov    -0x34(%ebp),%edx
  103803:	8b 45 e0             	mov    -0x20(%ebp),%eax
  103806:	bf c0 d9 10 00       	mov    $0x10d9c0,%edi
  10380b:	83 65 e4 00          	andl   $0x0,-0x1c(%ebp)
  10380f:	c7 45 d8 01 00 00 00 	movl   $0x1,-0x28(%ebp)
  103816:	2b 7d d4             	sub    -0x2c(%ebp),%edi
  103819:	8d 14 92             	lea    (%edx,%edx,4),%edx
  10381c:	83 c0 01             	add    $0x1,%eax
  10381f:	c7 45 dc 01 00 00 00 	movl   $0x1,-0x24(%ebp)
  103826:	89 55 c4             	mov    %edx,-0x3c(%ebp)
  103829:	89 45 c0             	mov    %eax,-0x40(%ebp)
  10382c:	8b 45 bc             	mov    -0x44(%ebp),%eax
  10382f:	90                   	nop
  103830:	8b 10                	mov    (%eax),%edx
  103832:	8d 4a fe             	lea    -0x2(%edx),%ecx
  103835:	83 f9 03             	cmp    $0x3,%ecx
  103838:	0f 86 c2 00 00 00    	jbe    103900 <draw_maze+0x1e0>
  10383e:	c6 07 20             	movb   $0x20,(%edi)
  103841:	83 7d e4 26          	cmpl   $0x26,-0x1c(%ebp)
  103845:	0f 84 5d 01 00 00    	je     1039a8 <draw_maze+0x288>
  10384b:	8b 70 04             	mov    0x4(%eax),%esi
  10384e:	85 f6                	test   %esi,%esi
  103850:	0f 84 82 02 00 00    	je     103ad8 <draw_maze+0x3b8>
  103856:	c6 47 01 23          	movb   $0x23,0x1(%edi)
  10385a:	83 7d e0 09          	cmpl   $0x9,-0x20(%ebp)
  10385e:	0f 84 1e 01 00 00    	je     103982 <draw_maze+0x262>
  103864:	8b 48 08             	mov    0x8(%eax),%ecx
  103867:	85 c9                	test   %ecx,%ecx
  103869:	0f 85 a1 02 00 00    	jne    103b10 <draw_maze+0x3f0>
  10386f:	8b 88 d4 01 00 00    	mov    0x1d4(%eax),%ecx
  103875:	83 f9 03             	cmp    $0x3,%ecx
  103878:	0f 84 54 03 00 00    	je     103bd2 <draw_maze+0x4b2>
  10387e:	83 f9 02             	cmp    $0x2,%ecx
  103881:	0f 84 e0 02 00 00    	je     103b67 <draw_maze+0x447>
  103887:	83 fa 02             	cmp    $0x2,%edx
  10388a:	0f 84 d7 02 00 00    	je     103b67 <draw_maze+0x447>
  103890:	c6 45 c8 20          	movb   $0x20,-0x38(%ebp)
  103894:	8b 5d d4             	mov    -0x2c(%ebp),%ebx
  103897:	8b 75 d0             	mov    -0x30(%ebp),%esi
  10389a:	8d 0c 1f             	lea    (%edi,%ebx,1),%ecx
  10389d:	0f b6 5d c8          	movzbl -0x38(%ebp),%ebx
  1038a1:	88 1c 31             	mov    %bl,(%ecx,%esi,1)
  1038a4:	8b 5d e4             	mov    -0x1c(%ebp),%ebx
  1038a7:	83 fb 26             	cmp    $0x26,%ebx
  1038aa:	0f 84 f2 01 00 00    	je     103aa2 <draw_maze+0x382>
  1038b0:	8b 48 04             	mov    0x4(%eax),%ecx
  1038b3:	85 c9                	test   %ecx,%ecx
  1038b5:	0f 84 67 03 00 00    	je     103c22 <draw_maze+0x502>
  1038bb:	8b 55 c4             	mov    -0x3c(%ebp),%edx
  1038be:	8b 75 dc             	mov    -0x24(%ebp),%esi
  1038c1:	83 c3 01             	add    $0x1,%ebx
  1038c4:	89 5d e4             	mov    %ebx,-0x1c(%ebp)
  1038c7:	c1 e2 04             	shl    $0x4,%edx
  1038ca:	c6 84 16 c0 d9 10 00 	movb   $0x23,0x10d9c0(%esi,%edx,1)
  1038d1:	23 
  1038d2:	8b 50 0c             	mov    0xc(%eax),%edx
  1038d5:	83 c6 02             	add    $0x2,%esi
  1038d8:	83 c0 0c             	add    $0xc,%eax
  1038db:	83 45 d8 01          	addl   $0x1,-0x28(%ebp)
  1038df:	89 75 dc             	mov    %esi,-0x24(%ebp)
  1038e2:	83 c7 02             	add    $0x2,%edi
  1038e5:	8d 4a fe             	lea    -0x2(%edx),%ecx
  1038e8:	83 f9 03             	cmp    $0x3,%ecx
  1038eb:	0f 87 4d ff ff ff    	ja     10383e <draw_maze+0x11e>
  1038f1:	2e 8d b4 26 00 00 00 	lea    %cs:0x0(%esi,%eiz,1),%esi
  1038f8:	00 
  1038f9:	8d b4 26 00 00 00 00 	lea    0x0(%esi,%eiz,1),%esi
  103900:	0f b6 89 bc 50 10 00 	movzbl 0x1050bc(%ecx),%ecx
  103907:	88 0f                	mov    %cl,(%edi)
  103909:	83 7d e4 26          	cmpl   $0x26,-0x1c(%ebp)
  10390d:	0f 84 65 01 00 00    	je     103a78 <draw_maze+0x358>
  103913:	8b 58 04             	mov    0x4(%eax),%ebx
  103916:	85 db                	test   %ebx,%ebx
  103918:	0f 85 92 02 00 00    	jne    103bb0 <draw_maze+0x490>
  10391e:	83 fa 03             	cmp    $0x3,%edx
  103921:	0f 85 b1 01 00 00    	jne    103ad8 <draw_maze+0x3b8>
  103927:	c6 47 01 70          	movb   $0x70,0x1(%edi)
  10392b:	83 7d e0 09          	cmpl   $0x9,-0x20(%ebp)
  10392f:	0f 84 d6 02 00 00    	je     103c0b <draw_maze+0x4eb>
  103935:	8b 70 08             	mov    0x8(%eax),%esi
  103938:	85 f6                	test   %esi,%esi
  10393a:	0f 84 92 03 00 00    	je     103cd2 <draw_maze+0x5b2>
  103940:	8b 5d cc             	mov    -0x34(%ebp),%ebx
  103943:	c6 47 50 23          	movb   $0x23,0x50(%edi)
  103947:	83 c0 0c             	add    $0xc,%eax
  10394a:	83 c7 02             	add    $0x2,%edi
  10394d:	83 45 e4 01          	addl   $0x1,-0x1c(%ebp)
  103951:	8d 14 9b             	lea    (%ebx,%ebx,4),%edx
  103954:	8b 5d dc             	mov    -0x24(%ebp),%ebx
  103957:	83 45 d8 01          	addl   $0x1,-0x28(%ebp)
  10395b:	c1 e2 04             	shl    $0x4,%edx
  10395e:	c6 84 13 c0 d9 10 00 	movb   $0x23,0x10d9c0(%ebx,%edx,1)
  103965:	23 
  103966:	83 c3 02             	add    $0x2,%ebx
  103969:	89 5d dc             	mov    %ebx,-0x24(%ebp)
  10396c:	e9 bf fe ff ff       	jmp    103830 <draw_maze+0x110>
  103971:	8b 55 c4             	mov    -0x3c(%ebp),%edx
  103974:	8b 5d dc             	mov    -0x24(%ebp),%ebx
  103977:	c1 e2 04             	shl    $0x4,%edx
  10397a:	c6 84 13 c0 d9 10 00 	movb   $0x23,0x10d9c0(%ebx,%edx,1)
  103981:	23 
  103982:	83 45 e4 01          	addl   $0x1,-0x1c(%ebp)
  103986:	83 7d e4 27          	cmpl   $0x27,-0x1c(%ebp)
  10398a:	0f 84 12 01 00 00    	je     103aa2 <draw_maze+0x382>
  103990:	83 45 d8 01          	addl   $0x1,-0x28(%ebp)
  103994:	83 c0 0c             	add    $0xc,%eax
  103997:	83 c7 02             	add    $0x2,%edi
  10399a:	83 45 dc 02          	addl   $0x2,-0x24(%ebp)
  10399e:	e9 8d fe ff ff       	jmp    103830 <draw_maze+0x110>
  1039a3:	2e 8d 74 26 00       	lea    %cs:0x0(%esi,%eiz,1),%esi
  1039a8:	83 7d e0 09          	cmpl   $0x9,-0x20(%ebp)
  1039ac:	0f 85 96 01 00 00    	jne    103b48 <draw_maze+0x428>
  1039b2:	31 f6                	xor    %esi,%esi
  1039b4:	31 db                	xor    %ebx,%ebx
  1039b6:	2e 8d b4 26 00 00 00 	lea    %cs:0x0(%esi,%eiz,1),%esi
  1039bd:	00 
  1039be:	66 90                	xchg   %ax,%ax
  1039c0:	31 ff                	xor    %edi,%edi
  1039c2:	eb 2e                	jmp    1039f2 <draw_maze+0x2d2>
  1039c4:	8d 74 26 00          	lea    0x0(%esi,%eiz,1),%esi
  1039c8:	3c 53                	cmp    $0x53,%al
  1039ca:	74 64                	je     103a30 <draw_maze+0x310>
  1039cc:	3c 45                	cmp    $0x45,%al
  1039ce:	74 60                	je     103a30 <draw_maze+0x310>
  1039d0:	3c 70                	cmp    $0x70,%al
  1039d2:	0f 84 88 00 00 00    	je     103a60 <draw_maze+0x340>
  1039d8:	3c 76                	cmp    $0x76,%al
  1039da:	74 74                	je     103a50 <draw_maze+0x330>
  1039dc:	53                   	push   %ebx
  1039dd:	57                   	push   %edi
  1039de:	6a 07                	push   $0x7
  1039e0:	6a 20                	push   $0x20
  1039e2:	e8 59 c9 ff ff       	call   100340 <terminal_putentryat>
  1039e7:	83 c4 10             	add    $0x10,%esp
  1039ea:	83 c7 01             	add    $0x1,%edi
  1039ed:	83 ff 50             	cmp    $0x50,%edi
  1039f0:	74 25                	je     103a17 <draw_maze+0x2f7>
  1039f2:	0f be 84 3e c0 d9 10 	movsbl 0x10d9c0(%esi,%edi,1),%eax
  1039f9:	00 
  1039fa:	3c 23                	cmp    $0x23,%al
  1039fc:	75 ca                	jne    1039c8 <draw_maze+0x2a8>
  1039fe:	53                   	push   %ebx
  1039ff:	57                   	push   %edi
  103a00:	83 c7 01             	add    $0x1,%edi
  103a03:	68 ff 00 00 00       	push   $0xff
  103a08:	6a 20                	push   $0x20
  103a0a:	e8 31 c9 ff ff       	call   100340 <terminal_putentryat>
  103a0f:	83 c4 10             	add    $0x10,%esp
  103a12:	83 ff 50             	cmp    $0x50,%edi
  103a15:	75 db                	jne    1039f2 <draw_maze+0x2d2>
  103a17:	83 c3 01             	add    $0x1,%ebx
  103a1a:	83 c6 50             	add    $0x50,%esi
  103a1d:	83 fb 17             	cmp    $0x17,%ebx
  103a20:	75 9e                	jne    1039c0 <draw_maze+0x2a0>
  103a22:	8d 65 f4             	lea    -0xc(%ebp),%esp
  103a25:	5b                   	pop    %ebx
  103a26:	5e                   	pop    %esi
  103a27:	5f                   	pop    %edi
  103a28:	5d                   	pop    %ebp
  103a29:	c3                   	ret
  103a2a:	8d b6 00 00 00 00    	lea    0x0(%esi),%esi
  103a30:	3c 53                	cmp    $0x53,%al
  103a32:	ba c0 00 00 00       	mov    $0xc0,%edx
  103a37:	b9 a0 00 00 00       	mov    $0xa0,%ecx
  103a3c:	53                   	push   %ebx
  103a3d:	0f 45 ca             	cmovne %edx,%ecx
  103a40:	57                   	push   %edi
  103a41:	51                   	push   %ecx
  103a42:	50                   	push   %eax
  103a43:	e8 f8 c8 ff ff       	call   100340 <terminal_putentryat>
  103a48:	83 c4 10             	add    $0x10,%esp
  103a4b:	eb 9d                	jmp    1039ea <draw_maze+0x2ca>
  103a4d:	8d 76 00             	lea    0x0(%esi),%esi
  103a50:	53                   	push   %ebx
  103a51:	57                   	push   %edi
  103a52:	6a 66                	push   $0x66
  103a54:	6a 20                	push   $0x20
  103a56:	e8 e5 c8 ff ff       	call   100340 <terminal_putentryat>
  103a5b:	83 c4 10             	add    $0x10,%esp
  103a5e:	eb 8a                	jmp    1039ea <draw_maze+0x2ca>
  103a60:	53                   	push   %ebx
  103a61:	57                   	push   %edi
  103a62:	6a 33                	push   $0x33
  103a64:	6a 20                	push   $0x20
  103a66:	e8 d5 c8 ff ff       	call   100340 <terminal_putentryat>
  103a6b:	83 c4 10             	add    $0x10,%esp
  103a6e:	e9 77 ff ff ff       	jmp    1039ea <draw_maze+0x2ca>
  103a73:	2e 8d 74 26 00       	lea    %cs:0x0(%esi,%eiz,1),%esi
  103a78:	83 7d e0 09          	cmpl   $0x9,-0x20(%ebp)
  103a7c:	0f 84 30 ff ff ff    	je     1039b2 <draw_maze+0x292>
  103a82:	8b 58 08             	mov    0x8(%eax),%ebx
  103a85:	85 db                	test   %ebx,%ebx
  103a87:	0f 85 e3 00 00 00    	jne    103b70 <draw_maze+0x450>
  103a8d:	83 fa 03             	cmp    $0x3,%edx
  103a90:	0f 85 b9 00 00 00    	jne    103b4f <draw_maze+0x42f>
  103a96:	8b 45 d4             	mov    -0x2c(%ebp),%eax
  103a99:	8b 75 d0             	mov    -0x30(%ebp),%esi
  103a9c:	01 f8                	add    %edi,%eax
  103a9e:	c6 04 30 70          	movb   $0x70,(%eax,%esi,1)
  103aa2:	8b 45 c0             	mov    -0x40(%ebp),%eax
  103aa5:	83 45 b8 01          	addl   $0x1,-0x48(%ebp)
  103aa9:	81 6d d4 a0 00 00 00 	subl   $0xa0,-0x2c(%ebp)
  103ab0:	81 45 d0 a0 00 00 00 	addl   $0xa0,-0x30(%ebp)
  103ab7:	81 45 bc d4 01 00 00 	addl   $0x1d4,-0x44(%ebp)
  103abe:	83 45 cc 02          	addl   $0x2,-0x34(%ebp)
  103ac2:	89 45 e0             	mov    %eax,-0x20(%ebp)
  103ac5:	83 f8 0a             	cmp    $0xa,%eax
  103ac8:	0f 85 32 fd ff ff    	jne    103800 <draw_maze+0xe0>
